WaitByLoop kind:function(thumb,size=0x4) addr:0x02000074
SoftReset kind:function(thumb,size=0x4) addr:0x020000e2
BitUnPack kind:function(thumb,size=0x4) addr:0x0200015e
HuffUnCompReadByCallback kind:function(thumb,size=0x4) addr:0x020001c2
CpuFastSet kind:function(thumb,size=0x4) addr:0x02000216
LZ77UnCompReadNormalWrite8bit kind:function(thumb,size=0x4) addr:0x0200027c
CpuSet kind:function(thumb,size=0x4) addr:0x020002ee
IntrWait kind:function(thumb,size=0x4) addr:0x0200034a
Sqrt kind:function(thumb,size=0x4) addr:0x020003b2
GetCRC16 kind:function(thumb,size=0x4) addr:0x0200041e
Halt kind:function(thumb,size=0x4) addr:0x02000494
LZ77UnCompReadByCallbackWrite16bit kind:function(thumb,size=0x4) addr:0x02000500
RLUnCompReadNormalWrite8bit kind:function(thumb,size=0x4) addr:0x0200058a
RLUnCompReadByCallbackWrite16bit kind:function(thumb,size=0x4) addr:0x020005fe
VBlankIntrWait kind:function(thumb,size=0x6) addr:0x02000654
Mod kind:function(thumb,size=0x6) addr:0x020006d2
Div kind:function(thumb,size=0x4) addr:0x0200072a
IsDebugger kind:function(thumb,size=0x4) addr:0x02000792
Entry kind:function(arm,size=0x13c) addr:0x02000800
func_0200093c kind:function(arm,size=0x14) addr:0x0200093c
func_02000950 kind:function(arm,size=0xac) addr:0x02000950
func_020009fc kind:function(arm,size=0x78) addr:0x020009fc
AutoloadCallback kind:function(arm,size=0x4) addr:0x02000a74
func_02000a78 kind:function(arm,size=0xe8) addr:0x02000a78
func_02000b60 kind:function(arm,size=0x4) addr:0x02000b60
BuildInfo kind:data(any) addr:0x02000b64
main kind:function(arm,size=0x20) addr:0x02000ba0
func_02000bc0 kind:function(arm,size=0x24) addr:0x02000bc0
func_02000be4 kind:function(arm,size=0x4c) addr:0x02000be4
func_02000c30 kind:function(arm,size=0x128) addr:0x02000c30
func_02000d58 kind:function(arm,size=0x68) addr:0x02000d58
func_02000dc0 kind:function(arm,size=0xc) addr:0x02000dc0
func_02000dcc kind:function(arm,size=0x4) addr:0x02000dcc
func_02000dd0 kind:function(arm,size=0x30) addr:0x02000dd0
func_02000e00 kind:function(arm,size=0x88) addr:0x02000e00
func_02000e88 kind:function(arm,size=0xe8) addr:0x02000e88
func_02000f70 kind:function(arm,size=0x38) addr:0x02000f70
func_02000fa8 kind:function(arm,size=0x14) addr:0x02000fa8
func_02000fbc kind:function(arm,size=0x1c) addr:0x02000fbc
func_02000fd8 kind:function(arm,size=0x78) addr:0x02000fd8
func_02001050 kind:function(arm,size=0x20) addr:0x02001050
func_02001070 kind:function(arm,size=0x14) addr:0x02001070
func_02001084 kind:function(arm,size=0x2c) addr:0x02001084
func_020010b0 kind:function(arm,size=0xb0) addr:0x020010b0
func_02001160 kind:function(arm,size=0x590) addr:0x02001160
func_020016f0 kind:function(arm,size=0x24c) addr:0x020016f0
func_0200193c kind:function(arm,size=0x2e0) addr:0x0200193c
func_02001c1c kind:function(arm,size=0x4dc) addr:0x02001c1c
func_020020f8 kind:function(arm,size=0x124) addr:0x020020f8
func_0200221c kind:function(arm,size=0x764) addr:0x0200221c
func_02002980 kind:function(arm,size=0x824) addr:0x02002980
func_020031a4 kind:function(arm,size=0x44) addr:0x020031a4
func_020031e8 kind:function(arm,size=0x68) addr:0x020031e8
func_02003250 kind:function(arm,size=0x18) addr:0x02003250
func_02003268 kind:function(arm,size=0x2c) addr:0x02003268
func_02003294 kind:function(arm,size=0x130) addr:0x02003294
func_020033c4 kind:function(arm,size=0x1c) addr:0x020033c4
func_020033e0 kind:function(arm,size=0xc8) addr:0x020033e0
func_020034a8 kind:function(arm,size=0x50) addr:0x020034a8
func_020034f8 kind:function(arm,size=0x30) addr:0x020034f8
func_02003528 kind:function(arm,size=0x114) addr:0x02003528
func_0200363c kind:function(arm,size=0x34) addr:0x0200363c
func_02003670 kind:function(arm,size=0x3c) addr:0x02003670
func_020036ac kind:function(arm,size=0x28) addr:0x020036ac
func_020036d4 kind:function(arm,size=0x20) addr:0x020036d4
func_020036f4 kind:function(arm,size=0xbc) addr:0x020036f4
func_020037b0 kind:function(arm,size=0x24c) addr:0x020037b0
func_020039fc kind:function(arm,size=0x6c) addr:0x020039fc
func_02003a68 kind:function(arm,size=0x4c) addr:0x02003a68
func_02003ab4 kind:function(arm,size=0x4) addr:0x02003ab4
func_02003ab8 kind:function(arm,size=0x40) addr:0x02003ab8
func_02003af8 kind:function(arm,size=0xcc) addr:0x02003af8
func_02003bc4 kind:function(arm,size=0x184) addr:0x02003bc4
func_02003d48 kind:function(arm,size=0x9c) addr:0x02003d48
func_02003de4 kind:function(arm,size=0x384) addr:0x02003de4
func_02004168 kind:function(arm,size=0x180) addr:0x02004168
func_020042e8 kind:function(arm,size=0xa8) addr:0x020042e8
func_02004390 kind:function(arm,size=0x94) addr:0x02004390
func_02004424 kind:function(arm,size=0x14) addr:0x02004424
func_02004438 kind:function(arm,size=0x70) addr:0x02004438
func_020044a8 kind:function(arm,size=0x318) addr:0x020044a8
func_020047c0 kind:function(arm,size=0x8c) addr:0x020047c0
func_0200484c kind:function(arm,size=0x364) addr:0x0200484c
func_02004bc8 kind:function(arm,size=0x3b4) addr:0x02004bc8
func_02004f7c kind:function(arm,size=0x21c) addr:0x02004f7c
func_02005198 kind:function(arm,size=0x8) addr:0x02005198
func_020051a0 kind:function(arm,size=0x98) addr:0x020051a0
func_02005238 kind:function(arm,size=0x9c) addr:0x02005238
func_020052d4 kind:function(arm,size=0x8c) addr:0x020052d4
func_02005360 kind:function(arm,size=0x5c) addr:0x02005360
func_020053bc kind:function(arm,size=0x5c) addr:0x020053bc
func_02005418 kind:function(arm,size=0x5c) addr:0x02005418
func_02005480 kind:function(arm,size=0x3b8) addr:0x02005480
func_02005838 kind:function(arm,size=0x84) addr:0x02005838
func_020058bc kind:function(arm,size=0x34) addr:0x020058bc
func_020058f0 kind:function(arm,size=0x40) addr:0x020058f0
func_02005930 kind:function(arm,size=0x48) addr:0x02005930
func_02005978 kind:function(arm,size=0x48) addr:0x02005978
func_020059c0 kind:function(arm,size=0x1e0) addr:0x020059c0
func_02005bac kind:function(arm,size=0x278) addr:0x02005bac
func_02005e24 kind:function(arm,size=0x10) addr:0x02005e24
func_02005e34 kind:function(arm,size=0x1b0) addr:0x02005e34
func_02005fe4 kind:function(arm,size=0xc) addr:0x02005fe4
func_02005ff0 kind:function(arm,size=0x3c) addr:0x02005ff0
_s32_div_f kind:function(arm,size=0x20c) addr:0x0200602c
func_02006238 kind:function(arm,size=0x1e4) addr:0x02006238
.L_02006240 kind:label(arm) addr:0x02006240
func_0200641c kind:function(arm,size=0x4) addr:0x0200641c
func_02006420 kind:function(arm,size=0x14) addr:0x02006420
func_02006434 kind:function(arm,size=0x14) addr:0x02006434
func_02006448 kind:function(arm,size=0x10) addr:0x02006448
func_02006458 kind:function(arm,size=0x50) addr:0x02006458
func_020064a8 kind:function(arm,size=0x34) addr:0x020064a8
func_020064dc kind:function(arm,size=0x8) addr:0x020064dc
func_020064e4 kind:function(arm,size=0x8c) addr:0x020064e4
func_02006570 kind:function(arm,size=0x8c) addr:0x02006570
func_020065fc kind:function(arm,size=0x64) addr:0x020065fc
func_02006660 kind:function(arm,size=0x108) addr:0x02006660
func_02006768 kind:function(arm,size=0x1c) addr:0x02006768
func_02006784 kind:function(arm,size=0x388) addr:0x02006784
func_02006b0c kind:function(arm,size=0x8a8) addr:0x02006b0c
func_020073b4 kind:function(arm,size=0x8) addr:0x020073b4
func_020073bc kind:function(arm,size=0x154) addr:0x020073bc
func_02007510 kind:function(arm,size=0x84) addr:0x02007510
func_02007594 kind:function(arm,size=0x60) addr:0x02007594
func_020075f4 kind:function(arm,size=0x1dc) addr:0x020075f4
func_020077d0 kind:function(arm,size=0x5c) addr:0x020077d0
func_0200782c kind:function(arm,size=0xec) addr:0x0200782c
func_02007918 kind:function(arm,size=0x28) addr:0x02007918
func_02007940 kind:function(arm,size=0x2c) addr:0x02007940
func_0200796c kind:function(arm,size=0x44) addr:0x0200796c
func_020079b0 kind:function(arm,size=0x48) addr:0x020079b0
func_020079f8 kind:function(arm,size=0x14) addr:0x020079f8
__cxa_vec_ctor kind:function(arm,size=0xb0) addr:0x02007a0c
__cxa_vec_cleanup kind:function(arm,size=0x48) addr:0x02007abc
func_02007b04 kind:function(arm,size=0x14) addr:0x02007b04
func_02007b18 kind:function(arm,size=0xc) addr:0x02007b18
func_02007b24 kind:function(arm,size=0xc) addr:0x02007b24
func_02007b30 kind:function(arm,size=0x18) addr:0x02007b30
__register_global_object kind:function(arm,size=0x20) addr:0x02007b48
func_02007b68 kind:function(arm,size=0x1b0) addr:0x02007b68
func_02007d18 kind:function(arm,size=0x5c) addr:0x02007d18
func_02007d74 kind:function(arm,size=0xa0) addr:0x02007d74
func_02007e14 kind:function(arm,size=0x20) addr:0x02007e14
func_02007e34 kind:function(arm,size=0x30) addr:0x02007e34
func_02007e64 kind:function(arm,size=0x30) addr:0x02007e64
func_02007e94 kind:function(arm,size=0x4c) addr:0x02007e94
func_02007ee0 kind:function(arm,size=0xc) addr:0x02007ee0
func_02007eec kind:function(arm,size=0x4) addr:0x02007eec
func_02007ef0 kind:function(arm,size=0x468) addr:0x02007ef0
func_02008358 kind:function(arm,size=0x15c) addr:0x02008358
func_020084b4 kind:function(arm,size=0x13c) addr:0x020084b4
func_020085f0 kind:function(arm,size=0x178) addr:0x020085f0
func_02008768 kind:function(arm,size=0x48) addr:0x02008768
func_020087b0 kind:function(arm,size=0x4) addr:0x020087b0
func_020087b4 kind:function(arm,size=0x18) addr:0x020087b4
func_020087cc kind:function(arm,size=0x14) addr:0x020087cc
func_020087e0 kind:function(arm,size=0xc) addr:0x020087e0
func_020087ec kind:function(arm,size=0x8) addr:0x020087ec
func_020087f4 kind:function(arm,size=0x68) addr:0x020087f4
func_0200885c kind:function(arm,size=0x4) addr:0x0200885c
func_02008860 kind:function(arm,size=0x8) addr:0x02008860
func_02008868 kind:function(arm,size=0x4) addr:0x02008868
func_0200886c kind:function(arm,size=0x4) addr:0x0200886c
func_02008870 kind:function(arm,size=0x4) addr:0x02008870
func_02008874 kind:function(arm,size=0x4) addr:0x02008874
func_02008878 kind:function(arm,size=0xcc) addr:0x02008878
func_02008944 kind:function(arm,size=0x78) addr:0x02008944
func_020089bc kind:function(arm,size=0x10) addr:0x020089bc
func_020089cc kind:function(arm,size=0x10) addr:0x020089cc
func_020089dc kind:function(arm,size=0x18) addr:0x020089dc
func_020089f4 kind:function(arm,size=0xc) addr:0x020089f4
func_02008a00 kind:function(arm,size=0x48) addr:0x02008a00
func_02008a48 kind:function(arm,size=0x60) addr:0x02008a48
func_02008aa8 kind:function(arm,size=0x4) addr:0x02008aa8
func_02008aac kind:function(arm,size=0x1f4) addr:0x02008aac
func_02008ca0 kind:function(arm,size=0x1c) addr:0x02008ca0
func_02008cbc kind:function(arm,size=0x90) addr:0x02008cbc
func_02008d4c kind:function(arm,size=0x4) addr:0x02008d4c
func_02008d50 kind:function(arm,size=0x34) addr:0x02008d50
func_02008d84 kind:function(arm,size=0x11c) addr:0x02008d84
func_02008ea0 kind:function(arm,size=0x18) addr:0x02008ea0
func_02008eb8 kind:function(arm,size=0xc) addr:0x02008eb8
func_02008ec4 kind:function(arm,size=0xc) addr:0x02008ec4
func_02008ed0 kind:function(arm,size=0x224) addr:0x02008ed0
func_020090f4 kind:function(arm,size=0xfc) addr:0x020090f4
func_020091f0 kind:function(arm,size=0x1b4) addr:0x020091f0
func_020093a4 kind:function(arm,size=0x90) addr:0x020093a4
func_02009434 kind:function(arm,size=0x4c) addr:0x02009434
func_02009480 kind:function(arm,size=0x18) addr:0x02009480
func_02009498 kind:function(arm,size=0x10) addr:0x02009498
func_020094a8 kind:function(arm,size=0x4) addr:0x020094a8
func_020094ac kind:function(arm,size=0xc) addr:0x020094ac
func_020094b8 kind:function(arm,size=0x28) addr:0x020094b8
func_020094e0 kind:function(arm,size=0xd0) addr:0x020094e0
func_020095b0 kind:function(arm,size=0x14) addr:0x020095b0
func_020095c4 kind:function(arm,size=0xd4) addr:0x020095c4
func_02009698 kind:function(arm,size=0x1cc) addr:0x02009698
func_02009864 kind:function(arm,size=0x4) addr:0x02009864
func_02009868 kind:function(arm,size=0x4) addr:0x02009868
func_0200986c kind:function(arm,size=0xf8) addr:0x0200986c
func_02009964 kind:function(arm,size=0x4c) addr:0x02009964
func_020099b0 kind:function(arm,size=0x18) addr:0x020099b0
func_020099c8 kind:function(arm,size=0x18) addr:0x020099c8
func_020099e0 kind:function(arm,size=0x4) addr:0x020099e0
func_020099e4 kind:function(arm,size=0xc) addr:0x020099e4
func_020099f0 kind:function(arm,size=0x1a0) addr:0x020099f0
func_02009b90 kind:function(arm,size=0x18) addr:0x02009b90
func_02009ba8 kind:function(arm,size=0x1d8) addr:0x02009ba8
func_02009d80 kind:function(arm,size=0x5c) addr:0x02009d80
func_02009ddc kind:function(arm,size=0xc4) addr:0x02009ddc
func_02009ea0 kind:function(arm,size=0x68) addr:0x02009ea0
func_02009f08 kind:function(arm,size=0x4) addr:0x02009f08
func_02009f0c kind:function(arm,size=0x4) addr:0x02009f0c
func_02009f10 kind:function(arm,size=0x10) addr:0x02009f10
func_02009f20 kind:function(arm,size=0x38) addr:0x02009f20
func_02009f58 kind:function(arm,size=0x120) addr:0x02009f58
func_0200a078 kind:function(arm,size=0x2c) addr:0x0200a078
func_0200a0a4 kind:function(arm,size=0x48) addr:0x0200a0a4
func_0200a0ec kind:function(arm,size=0x24) addr:0x0200a0ec
func_0200a110 kind:function(arm,size=0x4) addr:0x0200a110
func_0200a114 kind:function(arm,size=0x4) addr:0x0200a114
func_0200a118 kind:function(arm,size=0x24) addr:0x0200a118
func_0200a13c kind:function(thumb,size=0x94) addr:0x0200a13c
func_0200a1d0 kind:function(thumb,size=0x18) addr:0x0200a1d0
func_0200a1e8 kind:function(thumb,size=0x324) addr:0x0200a1e8
func_0200a50c kind:function(thumb,size=0x2) addr:0x0200a50c
func_0200a510 kind:function(thumb,size=0x2) addr:0x0200a510
func_0200a514 kind:function(thumb,size=0x130) addr:0x0200a514
func_0200a644 kind:function(thumb,size=0x2c) addr:0x0200a644
func_0200a670 kind:function(thumb,size=0xe) addr:0x0200a670
func_0200a680 kind:function(thumb,size=0x48) addr:0x0200a680
func_0200a6c8 kind:function(thumb,size=0x3c) addr:0x0200a6c8
func_0200a704 kind:function(thumb,size=0x2e) addr:0x0200a704
func_0200a734 kind:function(thumb,size=0x1a) addr:0x0200a734
func_0200a750 kind:function(thumb,size=0x80) addr:0x0200a750
func_0200a7d0 kind:function(thumb,size=0xb4) addr:0x0200a7d0
func_0200a884 kind:function(thumb,size=0x34) addr:0x0200a884
func_0200a8b8 kind:function(thumb,size=0xc0) addr:0x0200a8b8
func_0200a978 kind:function(thumb,size=0x24) addr:0x0200a978
func_0200a99c kind:function(thumb,size=0x14) addr:0x0200a99c
func_0200a9b0 kind:function(thumb,size=0x14) addr:0x0200a9b0
func_0200a9c4 kind:function(thumb,size=0x54) addr:0x0200a9c4
func_0200aa18 kind:function(thumb,size=0x88) addr:0x0200aa18
func_0200aaa0 kind:function(thumb,size=0x20) addr:0x0200aaa0
func_0200aac0 kind:function(thumb,size=0x20) addr:0x0200aac0
func_0200aae0 kind:function(thumb,size=0x4) addr:0x0200aae0
func_0200aae4 kind:function(thumb,size=0x20) addr:0x0200aae4
func_0200ab04 kind:function(thumb,size=0x4) addr:0x0200ab04
func_0200ab08 kind:function(thumb,size=0x4) addr:0x0200ab08
func_0200ab0c kind:function(thumb,size=0x19c) addr:0x0200ab0c
func_0200aca8 kind:function(thumb,size=0x1e) addr:0x0200aca8
func_0200acc8 kind:function(thumb,size=0x24) addr:0x0200acc8
func_0200acec kind:function(thumb,size=0x1c) addr:0x0200acec
func_0200ad08 kind:function(thumb,size=0x10) addr:0x0200ad08
func_0200ad18 kind:function(thumb,size=0x10) addr:0x0200ad18
func_0200ad28 kind:function(thumb,size=0xe) addr:0x0200ad28
func_0200ad38 kind:function(thumb,size=0xe) addr:0x0200ad38
func_0200ad48 kind:function(thumb,size=0x52) addr:0x0200ad48
func_0200ad9c kind:function(thumb,size=0x40) addr:0x0200ad9c
func_0200addc kind:function(thumb,size=0x32) addr:0x0200addc
func_0200ae10 kind:function(thumb,size=0x1e) addr:0x0200ae10
func_0200ae30 kind:function(thumb,size=0x20) addr:0x0200ae30
func_0200ae50 kind:function(thumb,size=0x2a) addr:0x0200ae50
func_0200ae7c kind:function(thumb,size=0x7c) addr:0x0200ae7c
func_0200aef8 kind:function(thumb,size=0x28) addr:0x0200aef8
func_0200af20 kind:function(thumb,size=0x2) addr:0x0200af20
func_0200af24 kind:function(thumb,size=0x2) addr:0x0200af24
func_0200af28 kind:function(thumb,size=0x11c) addr:0x0200af28
func_0200b044 kind:function(thumb,size=0x6e) addr:0x0200b044
func_0200b0b4 kind:function(thumb,size=0x10) addr:0x0200b0b4
func_0200b0c4 kind:function(thumb,size=0x22) addr:0x0200b0c4
func_0200b0e8 kind:function(thumb,size=0x6e) addr:0x0200b0e8
func_0200b158 kind:function(thumb,size=0x58) addr:0x0200b158
func_0200b1b0 kind:function(thumb,size=0x6c) addr:0x0200b1b0
func_0200b21c kind:function(thumb,size=0xc) addr:0x0200b21c
func_0200b228 kind:function(thumb,size=0x28) addr:0x0200b228
func_0200b250 kind:function(thumb,size=0x4) addr:0x0200b250
func_0200b254 kind:function(thumb,size=0x4) addr:0x0200b254
func_0200b258 kind:function(thumb,size=0x4c) addr:0x0200b258
func_0200b2a4 kind:function(thumb,size=0x28) addr:0x0200b2a4
func_0200b2cc kind:function(thumb,size=0x28) addr:0x0200b2cc
func_0200b2f4 kind:function(thumb,size=0x22) addr:0x0200b2f4
func_0200b318 kind:function(thumb,size=0xa) addr:0x0200b318
func_0200b324 kind:function(thumb,size=0xa) addr:0x0200b324
func_0200b330 kind:function(thumb,size=0xa) addr:0x0200b330
func_0200b33c kind:function(thumb,size=0x4) addr:0x0200b33c
func_0200b340 kind:function(thumb,size=0x4) addr:0x0200b340
func_0200b344 kind:function(thumb,size=0x20) addr:0x0200b344
func_0200b364 kind:function(thumb,size=0xe) addr:0x0200b364
func_0200b374 kind:function(thumb,size=0x26) addr:0x0200b374
func_0200b39c kind:function(thumb,size=0xa8) addr:0x0200b39c
func_0200b444 kind:function(thumb,size=0x9a) addr:0x0200b444
func_0200b4e0 kind:function(thumb,size=0xe) addr:0x0200b4e0
func_0200b4f0 kind:function(thumb,size=0x28) addr:0x0200b4f0
func_0200b518 kind:function(thumb,size=0x6) addr:0x0200b518
func_0200b520 kind:function(thumb,size=0x6) addr:0x0200b520
func_0200b528 kind:function(thumb,size=0xa) addr:0x0200b528
func_0200b534 kind:function(thumb,size=0x4) addr:0x0200b534
func_0200b538 kind:function(thumb,size=0x4) addr:0x0200b538
func_0200b53c kind:function(thumb,size=0x4) addr:0x0200b53c
func_0200b540 kind:function(thumb,size=0xa) addr:0x0200b540
func_0200b54c kind:function(thumb,size=0x2) addr:0x0200b54c
func_0200b550 kind:function(thumb,size=0x2) addr:0x0200b550
func_0200b554 kind:function(thumb,size=0x68) addr:0x0200b554
func_0200b5bc kind:function(thumb,size=0x8) addr:0x0200b5bc
func_0200b5c4 kind:function(thumb,size=0x8) addr:0x0200b5c4
func_0200b5cc kind:function(thumb,size=0x6) addr:0x0200b5cc
func_0200b5d4 kind:function(thumb,size=0x2) addr:0x0200b5d4
func_0200b5d8 kind:function(thumb,size=0x28) addr:0x0200b5d8
func_0200b600 kind:function(thumb,size=0xa) addr:0x0200b600
func_0200b60c kind:function(thumb,size=0xc) addr:0x0200b60c
func_0200b618 kind:function(thumb,size=0x5c) addr:0x0200b618
func_0200b674 kind:function(thumb,size=0x3c) addr:0x0200b674
func_0200b6b0 kind:function(thumb,size=0x6) addr:0x0200b6b0
func_0200b6b8 kind:function(thumb,size=0x2) addr:0x0200b6b8
func_0200b6bc kind:function(thumb,size=0x144) addr:0x0200b6bc
func_0200b800 kind:function(thumb,size=0x6) addr:0x0200b800
func_0200b808 kind:function(thumb,size=0x4) addr:0x0200b808
func_0200b80c kind:function(thumb,size=0x10) addr:0x0200b80c
func_0200b81c kind:function(thumb,size=0x8) addr:0x0200b81c
func_0200b824 kind:function(thumb,size=0x6) addr:0x0200b824
func_0200b82c kind:function(thumb,size=0x34) addr:0x0200b82c
func_0200b860 kind:function(thumb,size=0x2) addr:0x0200b860
func_0200b864 kind:function(thumb,size=0x38) addr:0x0200b864
func_0200b89c kind:function(thumb,size=0x28) addr:0x0200b89c
func_0200b8c4 kind:function(thumb,size=0x30) addr:0x0200b8c4
func_0200b8f4 kind:function(thumb,size=0x30) addr:0x0200b8f4
func_0200b924 kind:function(thumb,size=0x30) addr:0x0200b924
func_0200b954 kind:function(thumb,size=0x30) addr:0x0200b954
func_0200b984 kind:function(thumb,size=0x30) addr:0x0200b984
func_0200b9b4 kind:function(thumb,size=0x30) addr:0x0200b9b4
_ZN6Global11setMinigameEi kind:function(thumb,size=0x4) addr:0x0200b9e4
_ZN6Global11getMinigameEv kind:function(thumb,size=0x4) addr:0x0200b9e8
_ZN6Global13setGameStatusEi kind:function(thumb,size=0x4) addr:0x0200b9ec
_ZN6Global13getGameStatusEv kind:function(thumb,size=0x4) addr:0x0200b9f0
_ZN6Global15setRanarutaFlagEb kind:function(thumb,size=0x4) addr:0x0200b9f4
_ZN6Global15getRanarutaFlagEv kind:function(thumb,size=0x4) addr:0x0200b9f8
_ZN6Global10getMapNameEv kind:function(thumb,size=0x4) addr:0x0200b9fc
_ZN6Global14getPrevMapNameEv kind:function(thumb,size=0x4) addr:0x0200ba00
_ZN6Global10setMapNameEPc kind:function(thumb,size=0x2e) addr:0x0200ba04
_ZN6Global12isAreaChangeEv kind:function(thumb,size=0x20) addr:0x0200ba34
_ZN6Global12getFieldTypeEv kind:function(thumb,size=0x4) addr:0x0200ba54
func_0200ba58 kind:function(thumb,size=0x34) addr:0x0200ba58
func_0200ba8c kind:function(thumb,size=0x2c) addr:0x0200ba8c
func_0200bab8 kind:function(thumb,size=0x3c) addr:0x0200bab8
func_0200baf4 kind:function(thumb,size=0x50) addr:0x0200baf4
func_0200bb44 kind:function(thumb,size=0xd0) addr:0x0200bb44
func_0200bc14 kind:function(thumb,size=0x22) addr:0x0200bc14
func_0200bc38 kind:function(thumb,size=0x48) addr:0x0200bc38
func_0200bc80 kind:function(thumb,size=0x28) addr:0x0200bc80
func_0200bca8 kind:function(thumb,size=0x1c) addr:0x0200bca8
func_0200bcc4 kind:function(thumb,size=0x44) addr:0x0200bcc4
func_0200bd08 kind:function(thumb,size=0x28) addr:0x0200bd08
func_0200bd30 kind:function(thumb,size=0x1c) addr:0x0200bd30
func_0200bd4c kind:function(thumb,size=0x1c) addr:0x0200bd4c
func_0200bd68 kind:function(thumb,size=0x1c) addr:0x0200bd68
func_0200bd84 kind:function(thumb,size=0x24) addr:0x0200bd84
func_0200bda8 kind:function(thumb,size=0xe) addr:0x0200bda8
func_0200bdb8 kind:function(thumb,size=0x4) addr:0x0200bdb8
func_0200bdbc kind:function(thumb,size=0x14) addr:0x0200bdbc
func_0200bdd0 kind:function(thumb,size=0x2) addr:0x0200bdd0
func_0200bdd4 kind:function(thumb,size=0x78) addr:0x0200bdd4
func_0200be4c kind:function(thumb,size=0x12) addr:0x0200be4c
func_0200be60 kind:function(thumb,size=0x2a) addr:0x0200be60
func_0200be8c kind:function(thumb,size=0xc) addr:0x0200be8c
func_0200be98 kind:function(thumb,size=0x22) addr:0x0200be98
func_0200bebc kind:function(thumb,size=0x16) addr:0x0200bebc
func_0200bed4 kind:function(thumb,size=0x24) addr:0x0200bed4
func_0200bef8 kind:function(thumb,size=0x10) addr:0x0200bef8
func_0200bf08 kind:function(thumb,size=0x14) addr:0x0200bf08
func_0200bf1c kind:function(thumb,size=0x14) addr:0x0200bf1c
func_0200bf30 kind:function(thumb,size=0x14) addr:0x0200bf30
func_0200bf44 kind:function(thumb,size=0x2) addr:0x0200bf44
func_0200bf48 kind:function(thumb,size=0x16) addr:0x0200bf48
func_0200bf60 kind:function(thumb,size=0x12) addr:0x0200bf60
func_0200bf74 kind:function(thumb,size=0x20) addr:0x0200bf74
func_0200bf94 kind:function(thumb,size=0x2) addr:0x0200bf94
func_0200bf98 kind:function(thumb,size=0x2c) addr:0x0200bf98
func_0200bfc4 kind:function(thumb,size=0x34) addr:0x0200bfc4
func_0200bff8 kind:function(thumb,size=0xc) addr:0x0200bff8
func_0200c004 kind:function(thumb,size=0xc) addr:0x0200c004
func_0200c010 kind:function(thumb,size=0x10) addr:0x0200c010
func_0200c020 kind:function(thumb,size=0xc) addr:0x0200c020
func_0200c02c kind:function(thumb,size=0xc) addr:0x0200c02c
func_0200c038 kind:function(thumb,size=0xc) addr:0x0200c038
func_0200c044 kind:function(thumb,size=0xc) addr:0x0200c044
func_0200c050 kind:function(thumb,size=0x54) addr:0x0200c050
func_0200c0a4 kind:function(thumb,size=0x534) addr:0x0200c0a4
func_0200c5d8 kind:function(thumb,size=0x2d8) addr:0x0200c5d8
func_0200c8b0 kind:function(thumb,size=0x34a) addr:0x0200c8b0
func_0200cbfc kind:function(thumb,size=0x68) addr:0x0200cbfc
func_0200cc64 kind:function(thumb,size=0x1bc) addr:0x0200cc64
func_0200ce20 kind:function(thumb,size=0x104) addr:0x0200ce20
func_0200cf24 kind:function(thumb,size=0x3c) addr:0x0200cf24
func_0200cf60 kind:function(thumb,size=0x2b8) addr:0x0200cf60
func_0200d218 kind:function(thumb,size=0x2) addr:0x0200d218
func_0200d21c kind:function(thumb,size=0x2) addr:0x0200d21c
_ZN6status10ExcelParam5setupEv kind:function(thumb,size=0x170) addr:0x0200d220
_ZN6status10ExcelParam16getCharaInitDataEv kind:function(thumb,size=0x4) addr:0x0200d390
_ZN6status10ExcelParam11getHeroDataEv kind:function(thumb,size=0x4) addr:0x0200d394
_ZN6status10ExcelParam14getWarriorDataEv kind:function(thumb,size=0x4) addr:0x0200d398
_ZN6status10ExcelParam15getPrincessDataEv kind:function(thumb,size=0x4) addr:0x0200d39c
_ZN6status10ExcelParam13getPriestDataEv kind:function(thumb,size=0x4) addr:0x0200d3a0
_ZN6status10ExcelParam11getMageDataEv kind:function(thumb,size=0x4) addr:0x0200d3a4
_ZN6status10ExcelParam13getTraderDataEv kind:function(thumb,size=0x4) addr:0x0200d3a8
_ZN6status10ExcelParam14getWarlockDataEv kind:function(thumb,size=0x4) addr:0x0200d3ac
_ZN6status10ExcelParam13getDancerDataEv kind:function(thumb,size=0x4) addr:0x0200d3b0
_ZN6status10ExcelParam14getPissaroDataEv kind:function(thumb,size=0x4) addr:0x0200d3b4
_ZN6status10ExcelParam11getItemDataEv kind:function(thumb,size=0x4) addr:0x0200d3b8
_ZN6status10ExcelParam14getAppriseItemEv kind:function(thumb,size=0x4) addr:0x0200d3bc
_ZN6status10ExcelParam15getAlterMessageEv kind:function(thumb,size=0x4) addr:0x0200d3c0
func_0200d3c4 kind:function(thumb,size=0x4) addr:0x0200d3c4
func_0200d3c8 kind:function(thumb,size=0xf8) addr:0x0200d3c8
func_0200d4c0 kind:function(thumb,size=0xe) addr:0x0200d4c0
func_0200d4d0 kind:function(thumb,size=0xe) addr:0x0200d4d0
func_0200d4e0 kind:function(thumb,size=0xc) addr:0x0200d4e0
func_0200d4ec kind:function(thumb,size=0xc) addr:0x0200d4ec
func_0200d4f8 kind:function(thumb,size=0x18) addr:0x0200d4f8
func_0200d510 kind:function(thumb,size=0x18) addr:0x0200d510
func_0200d528 kind:function(thumb,size=0x28) addr:0x0200d528
func_0200d550 kind:function(thumb,size=0x14) addr:0x0200d550
func_0200d564 kind:function(thumb,size=0x20) addr:0x0200d564
func_0200d584 kind:function(thumb,size=0x1c) addr:0x0200d584
func_0200d5a0 kind:function(thumb,size=0x2c) addr:0x0200d5a0
func_0200d5cc kind:function(thumb,size=0x8) addr:0x0200d5cc
func_0200d5d4 kind:function(thumb,size=0x14) addr:0x0200d5d4
func_0200d5e8 kind:function(thumb,size=0x10) addr:0x0200d5e8
func_0200d5f8 kind:function(thumb,size=0x24) addr:0x0200d5f8
func_0200d61c kind:function(thumb,size=0x14) addr:0x0200d61c
func_0200d630 kind:function(thumb,size=0x10) addr:0x0200d630
func_0200d640 kind:function(thumb,size=0x10) addr:0x0200d640
func_0200d650 kind:function(thumb,size=0x10) addr:0x0200d650
func_0200d660 kind:function(thumb,size=0x10) addr:0x0200d660
func_0200d670 kind:function(thumb,size=0x10) addr:0x0200d670
func_0200d680 kind:function(thumb,size=0x10) addr:0x0200d680
func_0200d690 kind:function(thumb,size=0x10) addr:0x0200d690
func_0200d6a0 kind:function(thumb,size=0x30) addr:0x0200d6a0
func_0200d6d0 kind:function(thumb,size=0x48) addr:0x0200d6d0
func_0200d718 kind:function(thumb,size=0x10) addr:0x0200d718
func_0200d728 kind:function(thumb,size=0x10) addr:0x0200d728
func_0200d738 kind:function(thumb,size=0x10) addr:0x0200d738
func_0200d748 kind:function(thumb,size=0x18) addr:0x0200d748
func_0200d760 kind:function(thumb,size=0x1c) addr:0x0200d760
func_0200d77c kind:function(thumb,size=0x10) addr:0x0200d77c
func_0200d78c kind:function(thumb,size=0x1c) addr:0x0200d78c
func_0200d7a8 kind:function(thumb,size=0x10) addr:0x0200d7a8
func_0200d7b8 kind:function(thumb,size=0x10) addr:0x0200d7b8
func_0200d7c8 kind:function(thumb,size=0xc) addr:0x0200d7c8
func_0200d7d4 kind:function(thumb,size=0x84) addr:0x0200d7d4
func_0200d858 kind:function(thumb,size=0x70) addr:0x0200d858
func_0200d8c8 kind:function(thumb,size=0x260) addr:0x0200d8c8
func_0200db28 kind:function(thumb,size=0x37c) addr:0x0200db28
func_0200dea4 kind:function(thumb,size=0xc) addr:0x0200dea4
func_0200deb0 kind:function(thumb,size=0x5c) addr:0x0200deb0
func_0200df0c kind:function(arm,size=0x8c) addr:0x0200df0c
func_0200df98 kind:function(arm,size=0x44) addr:0x0200df98
func_0200dfdc kind:function(arm,size=0x10) addr:0x0200dfdc
func_0200dfec kind:function(arm,size=0x10) addr:0x0200dfec
func_0200dffc kind:function(arm,size=0x4) addr:0x0200dffc
func_0200e000 kind:function(arm,size=0x4) addr:0x0200e000
_ZN6status10BaseStatusC1Ev kind:function(thumb,size=0x18) addr:0x0200e004
_ZN6status10BaseStatusD1Ev kind:function(thumb,size=0x2) addr:0x0200e01c
_ZN6status10BaseStatus13getClampValueEjjj kind:function(thumb,size=0x10) addr:0x0200e020
_ZN6status10BaseStatus6getMinEjj kind:function(thumb,size=0x8) addr:0x0200e030
_ZN6status10BaseStatus6getMaxEjj kind:function(thumb,size=0x8) addr:0x0200e038
_ZN6status10BaseStatus11addStrengthEc kind:function(thumb,size=0x18) addr:0x0200e040
_ZN6status10BaseStatus10addAgilityEc kind:function(thumb,size=0x14) addr:0x0200e058
_ZN6status10BaseStatus13addProtectionEc kind:function(thumb,size=0x18) addr:0x0200e06c
_ZN6status10BaseStatus9addWisdomEc kind:function(thumb,size=0x14) addr:0x0200e084
_ZN6status10BaseStatus14getClampValue2Ettt kind:function(thumb,size=0x10) addr:0x0200e098
_ZN6status10BaseStatus7getMin2Ett kind:function(thumb,size=0x8) addr:0x0200e0a8
_ZN6status10BaseStatus7getMax2Ett kind:function(thumb,size=0x8) addr:0x0200e0b0
_ZN6status10BaseStatus8setHpMaxEt kind:function(thumb,size=0x18) addr:0x0200e0b8
_ZN6status10BaseStatus8addHpMaxEc kind:function(thumb,size=0x20) addr:0x0200e0d0
_ZN6status10BaseStatus8setMpMaxEt kind:function(thumb,size=0x18) addr:0x0200e0f0
_ZN6status10BaseStatus8addMpMaxEc kind:function(thumb,size=0x20) addr:0x0200e108
_ZN6status12PlayerStatusC1Ev kind:function(thumb,size=0x1c) addr:0x0200e128
_ZN6status12PlayerStatusD1Ev kind:function(thumb,size=0xc) addr:0x0200e144
_ZN6status12PlayerStatus5setupEi kind:function(thumb,size=0x40) addr:0x0200e150
_ZN6status12PlayerStatus7levelupEi kind:function(thumb,size=0x12) addr:0x0200e190
_ZN6status12PlayerStatus16setBestConditionEv kind:function(thumb,size=0x1c) addr:0x0200e1a4
_ZN6status12PlayerStatus10walkDamageE11StageDamage kind:function(thumb,size=0x4c) addr:0x0200e1c0
_ZN6status12PlayerStatus10walkNormalEv kind:function(thumb,size=0x70) addr:0x0200e20c
_ZN6status12PlayerStatus19setWalkEffectPoisonEv kind:function(thumb,size=0x3c) addr:0x0200e27c
_ZN6status12PlayerStatus22setWalkEffectZombiMailEv kind:function(thumb,size=0x4c) addr:0x0200e2b8
_ZN6status12PlayerStatus22setWalkEffectLuckShoesEv kind:function(thumb,size=0x34) addr:0x0200e304
_ZN6status12PlayerStatus20setWalkEffectLuckHatEv kind:function(thumb,size=0x44) addr:0x0200e338
_ZN6status12PlayerStatus24setWalkEffectGoddessRingEv kind:function(thumb,size=0x44) addr:0x0200e37c
_ZN6status12PlayerStatus21setWalkEffectLifeRingEv kind:function(thumb,size=0x44) addr:0x0200e3c0
_ZN6status12PlayerStatus15clearWalkDamageEv kind:function(thumb,size=0x34) addr:0x0200e404
_ZN6status12PlayerStatus12setNearDeathEi kind:function(thumb,size=0x2e) addr:0x0200e438
_ZN6status12PlayerStatus16execStartOfRoundEv kind:function(thumb,size=0x1a) addr:0x0200e468
_ZN6status12PlayerStatus11execOfRoundEv kind:function(thumb,size=0x58) addr:0x0200e484
_ZN6status12PlayerStatus16setMosyasReleaseEv kind:function(thumb,size=0x2) addr:0x0200e4dc
_ZN6status12PlayerStatus15setMosyasChangeEv kind:function(thumb,size=0x2) addr:0x0200e4e0
_ZN6status12PlayerStatus20setSaveDataForPlayerEPN7profile14PROFILE_PLAYERE kind:function(thumb,size=0xf4) addr:0x0200e4e4
_ZN6status12PlayerStatus20setLoadDataForPlayerEPN7profile14PROFILE_PLAYERE kind:function(thumb,size=0xf4) addr:0x0200e5d8
_ZN6status12PlayerStatus14isDeathDisableEv kind:function(arm,size=0x8) addr:0x0200e6cc
_ZN6status12PlayerStatus11printActionEv kind:function(arm,size=0x4) addr:0x0200e6d4
_ZN6status12PlayerStatus5printEv kind:function(arm,size=0x4) addr:0x0200e6d8
_ZN6status15BasePartyStatusC1Ev kind:function(thumb,size=0x24) addr:0x0200e6dc
_ZN6status15BasePartyStatus15isCarriageEnterEv kind:function(thumb,size=0x28) addr:0x0200e700
_ZN6status15BasePartyStatus7setGoldEi kind:function(thumb,size=0x20) addr:0x0200e728
_ZN6status15BasePartyStatus13getClampValueEjjj kind:function(thumb,size=0x10) addr:0x0200e748
_ZN6status15BasePartyStatus6getMinEjj kind:function(thumb,size=0x8) addr:0x0200e758
_ZN6status15BasePartyStatus6getMaxEjj kind:function(thumb,size=0x8) addr:0x0200e760
_ZN6status15BasePartyStatus7addGoldEi kind:function(thumb,size=0x24) addr:0x0200e768
_ZN6status15BasePartyStatus12setBankMoneyEj kind:function(thumb,size=0x20) addr:0x0200e78c
_ZN6status15BasePartyStatus12addBankMoneyEj kind:function(thumb,size=0x24) addr:0x0200e7ac
_ZN6status15BasePartyStatus13setCasinoCoinEj kind:function(thumb,size=0x20) addr:0x0200e7d0
_ZN6status15BasePartyStatus13addCasinoCoinEi kind:function(thumb,size=0x24) addr:0x0200e7f0
_ZN6status15BasePartyStatus12setMedalCoinEj kind:function(thumb,size=0x1c) addr:0x0200e814
_ZN6status15BasePartyStatus12addMedalCoinEj kind:function(thumb,size=0x20) addr:0x0200e830
_ZN6status15BasePartyStatus18setPlayerMedalCoinEj kind:function(thumb,size=0x1c) addr:0x0200e850
_ZN6status15BasePartyStatus18addPlayerMedalCoinEj kind:function(thumb,size=0x20) addr:0x0200e86c
_ZN6status15BasePartyStatus16isFirstMedalCoinEv kind:function(thumb,size=0x18) addr:0x0200e88c
_ZN6status15BasePartyStatus11setSaveDataEPN7profile13PROFILE_PARTYE kind:function(thumb,size=0x18) addr:0x0200e8a4
_ZN6status15BasePartyStatus11setLoadDataEPN7profile13PROFILE_PARTYE kind:function(thumb,size=0x1c) addr:0x0200e8bc
_ZN6status15BasePartyStatus12getBattleExpEv kind:function(thumb,size=0x8) addr:0x0200e8d8
_ZN6status15BasePartyStatus13getBattleGoldEv kind:function(thumb,size=0x8) addr:0x0200e8e0
func_0200e8e8 kind:function(thumb,size=0x6c) addr:0x0200e8e8
func_0200e954 kind:function(thumb,size=0x78) addr:0x0200e954
func_0200e9cc kind:function(thumb,size=0x24) addr:0x0200e9cc
func_0200e9f0 kind:function(thumb,size=0x6) addr:0x0200e9f0
_ZN6status11PartyStatusD2Ev kind:function(thumb,size=0xe) addr:0x0200e9f8
_ZN6status11PartyStatus10initializeEv kind:function(thumb,size=0x34) addr:0x0200ea08
_ZN6status11PartyStatus3addEi kind:function(thumb,size=0x8c) addr:0x0200ea3c
_ZN6status11PartyStatus16addMemberOutsideEi kind:function(thumb,size=0x40) addr:0x0200eac8
_ZN6status11PartyStatus19removeMemberOutsideEi kind:function(thumb,size=0x60) addr:0x0200eb08
_ZN6status11PartyStatus18clearMemberOutsideEv kind:function(thumb,size=0x14) addr:0x0200eb68
_ZN6status11PartyStatus17addMemberBacksideEi kind:function(thumb,size=0x2a) addr:0x0200eb7c
_ZN6status11PartyStatus20removeMemberBacksideEi kind:function(thumb,size=0x2c) addr:0x0200eba8
_ZN6status11PartyStatus19clearMemberBacksideEv kind:function(thumb,size=0x14) addr:0x0200ebd4
_ZN6status11PartyStatus3delEi kind:function(thumb,size=0x34) addr:0x0200ebe8
_ZN6status11PartyStatus5clearEv kind:function(thumb,size=0x2c) addr:0x0200ec1c
_ZN6status11PartyStatus7reorderEiiii kind:function(thumb,size=0x98) addr:0x0200ec48
_ZN6status11PartyStatus14getPlayerIndexEi kind:function(thumb,size=0xc) addr:0x0200ece0
_ZN6status11PartyStatus15getPlayerStatusEi kind:function(thumb,size=0x1c) addr:0x0200ecec
_ZN6status11PartyStatus29getPlayerStatusForPlayerIndexEi kind:function(thumb,size=0x14) addr:0x0200ed08
_ZN6status11PartyStatus13isInsideBashaEi kind:function(thumb,size=0x24) addr:0x0200ed1c
_ZN6status11PartyStatus16isInsideCarriageEi kind:function(thumb,size=0x14) addr:0x0200ed40
_ZN6status11PartyStatus17isOutsideCarriageEi kind:function(thumb,size=0x1c) addr:0x0200ed54
_ZN6status11PartyStatus30isInsideCarriageForPlayerIndexEi kind:function(thumb,size=0x1c) addr:0x0200ed70
_ZN6status11PartyStatus21execOfRoundInCarriageEv kind:function(thumb,size=0x36) addr:0x0200ed8c
_ZN6status11PartyStatus22isCarriageEnableOnGameEv kind:function(thumb,size=0x2c) addr:0x0200edc4
_ZN6status11PartyStatus23getCarriageEnableOnGameEv kind:function(thumb,size=0x8) addr:0x0200edf0
_ZN6status11PartyStatus12getSortIndexEi kind:function(thumb,size=0x32) addr:0x0200edf8
_ZN6status11PartyStatus34getAlivePlayerCountOutsideCarriageEv kind:function(thumb,size=0x5a) addr:0x0200ee2c
_ZN6status11PartyStatus38getAliveCountOutsideCarriagePlayerOnlyEv kind:function(thumb,size=0x42) addr:0x0200ee88
_ZN6status11PartyStatus12forceReorderEv kind:function(thumb,size=0x7c) addr:0x0200eecc
_ZN6status11PartyStatus13setNormalModeEv kind:function(thumb,size=0x1c) addr:0x0200ef48
_ZN6status11PartyStatus19isNormalModeEnabledEv kind:function(thumb,size=0x2e) addr:0x0200ef64
_ZN6status11PartyStatus13setPlayerModeEv kind:function(thumb,size=0x1c) addr:0x0200ef94
_ZN6status11PartyStatus19isPlayerModeEnabledEv kind:function(thumb,size=0x2e) addr:0x0200efb0
_ZN6status11PartyStatus13setBattleModeEv kind:function(thumb,size=0x1c) addr:0x0200efe0
_ZN6status11PartyStatus19isBattleModeEnabledEv kind:function(thumb,size=0x38) addr:0x0200effc
_ZN6status11PartyStatus25setBattleModeWithCarriageEv kind:function(thumb,size=0x1c) addr:0x0200f034
_ZN6status11PartyStatus31isBattleModeWithCarriageEnabledEv kind:function(thumb,size=0x38) addr:0x0200f050
_ZN6status11PartyStatus14setDisplayModeEv kind:function(thumb,size=0x18) addr:0x0200f088
_ZN6status11PartyStatus13isDisplayModeEv kind:function(thumb,size=0x10) addr:0x0200f0a0
_ZN6status11PartyStatus18setMemberShiftModeEv kind:function(thumb,size=0x18) addr:0x0200f0b0
_ZN6status11PartyStatus17isMemberShiftModeEv kind:function(thumb,size=0x14) addr:0x0200f0c8
_ZN6status11PartyStatus16setAllPlayerModeEv kind:function(thumb,size=0x48) addr:0x0200f0dc
_ZN6status11PartyStatus13setAccessModeEj kind:function(thumb,size=0x18) addr:0x0200f124
_ZN6status11PartyStatus13getAccessModeEv kind:function(thumb,size=0x8) addr:0x0200f13c
_ZN6status11PartyStatus8setPartyEv kind:function(thumb,size=0x3e) addr:0x0200f144
_ZN6status11PartyStatus18setPartyPlayerModeEv kind:function(thumb,size=0x90) addr:0x0200f184
_ZN6status11PartyStatus18setPartyBattleModeEv kind:function(thumb,size=0xac) addr:0x0200f214
_ZN6status11PartyStatus30setPartyBattleModeWithCarriageEv kind:function(thumb,size=0xb8) addr:0x0200f2c0
_ZN6status11PartyStatus23setPartyMemberShiftModeEv kind:function(thumb,size=0xb8) addr:0x0200f378
_ZN6status11PartyStatus18setPartyNormalModeEv kind:function(thumb,size=0xd4) addr:0x0200f430
_ZN6status11PartyStatus19setPartyDisplayModeEv kind:function(thumb,size=0xf8) addr:0x0200f504
_ZN6status11PartyStatus8getCountEv kind:function(thumb,size=0x20) addr:0x0200f5fc
_ZN6status11PartyStatus16getCarriageCountEv kind:function(thumb,size=0x2e) addr:0x0200f61c
_ZN6status11PartyStatus19getCarriageOutCountEv kind:function(thumb,size=0x2e) addr:0x0200f64c
_ZN6status11PartyStatus24getCarriageOutAliveCountEv kind:function(thumb,size=0x40) addr:0x0200f67c
_ZN6status11PartyStatus8isPlayerEi kind:function(thumb,size=0x24) addr:0x0200f6bc
_ZN6status11PartyStatus11isBattleNpcEi kind:function(thumb,size=0x24) addr:0x0200f6e0
_ZN6status11PartyStatus11isNormalNpcEi kind:function(thumb,size=0x24) addr:0x0200f704
_ZN6status11PartyStatus12isSpecialNpcEi kind:function(thumb,size=0x24) addr:0x0200f728
_ZN6status11PartyStatus11allRecoveryEv kind:function(thumb,size=0x2c) addr:0x0200f74c
_ZN6status11PartyStatus11startBattleEv kind:function(thumb,size=0x34) addr:0x0200f778
_ZN6status11PartyStatus16reflectBattleExpEv kind:function(thumb,size=0x6c) addr:0x0200f7ac
_ZN6status11PartyStatus17reflectBattleGoldEv kind:function(thumb,size=0x24) addr:0x0200f818
_ZN6status11PartyStatus16getLevelupPlayerEv kind:function(thumb,size=0x38) addr:0x0200f83c
_ZN6status11PartyStatus12isDemolitionEv kind:function(thumb,size=0x54) addr:0x0200f874
_ZN6status11PartyStatus18recoveryDemolitionEv kind:function(thumb,size=0xa4) addr:0x0200f8c8
_ZN6status11PartyStatus25recoveryDisableDemolitionEv kind:function(thumb,size=0x50) addr:0x0200f96c
_ZN6status11PartyStatus20getStoryPlayerStatusEv kind:function(thumb,size=0xdc) addr:0x0200f9bc
_ZN6status11PartyStatus8giveItemEi kind:function(thumb,size=0x6a) addr:0x0200fa98
_ZN6status11PartyStatus14getLeaderIndexEv kind:function(thumb,size=0x44) addr:0x0200fb04
_ZN6status11PartyStatus10isHaveItemEi kind:function(thumb,size=0x62) addr:0x0200fb48
_ZN6status11PartyStatus11isEquipItemEi kind:function(thumb,size=0x3e) addr:0x0200fbac
_ZN6status11PartyStatus10setHostageEib kind:function(thumb,size=0x2c) addr:0x0200fbec
_ZN6status11PartyStatus9isHostageEi kind:function(thumb,size=0x1c) addr:0x0200fc18
_ZN6status11PartyStatus17isPoisonForMantanEv kind:function(thumb,size=0x4e) addr:0x0200fc34
_ZN6status11PartyStatus22destroyPoisonForMantanERNS_14UseActionParamE kind:function(thumb,size=0xdc) addr:0x0200fc84
_ZN6status11PartyStatus19isRecoveryForMantanEv kind:function(thumb,size=0x5e) addr:0x0200fd60
_ZN6status11PartyStatus17recoveryForMantanERNS_14UseActionParamE kind:function(thumb,size=0x334) addr:0x0200fdc0
_ZN6status11PartyStatus17calcRecoveryValueEiPiS1_ kind:function(thumb,size=0x62) addr:0x020100f4
_ZN6status11PartyStatus17calcRecoveryLocalEiPiS1_S1_ kind:function(thumb,size=0x13a) addr:0x02010158
_ZN6status11PartyStatus20calcRecoveryLocalMaxEiPiS1_S1_S1_S1_ kind:function(thumb,size=0x58) addr:0x02010294
_ZN6status11PartyStatus22getBehomalaTargetIndexEPi kind:function(thumb,size=0x64) addr:0x020102ec
_ZN6status11PartyStatus14isExecMinadeinEv kind:function(thumb,size=0x4c) addr:0x02010350
_ZN6status11PartyStatus16isMinadeinEnableEPNS_12PlayerStatusE kind:function(thumb,size=0x7c) addr:0x0201039c
_ZN6status11PartyStatus15getAverageLevelEv kind:function(thumb,size=0x36) addr:0x02010418
_ZN6status11PartyStatus11getMaxLevelEv kind:function(thumb,size=0x34) addr:0x02010450
_ZN6status11PartyStatus13isChapter4BGMEv kind:function(thumb,size=0x58) addr:0x02010484
_ZN6status11PartyStatus19isPartyActionEnableEv kind:function(thumb,size=0x48) addr:0x020104dc
_ZN6status11PartyStatus20isMegazaruRingEnableEv kind:function(thumb,size=0x1a) addr:0x02010524
func_02010540 kind:function(thumb,size=0xc) addr:0x02010540
func_0201054c kind:function(thumb,size=0xc) addr:0x0201054c
func_02010558 kind:function(thumb,size=0x1c) addr:0x02010558
_ZN6status8HaveItemC1Ev kind:function(thumb,size=0x44) addr:0x02010574
_ZN6status8HaveItemD1Ev kind:function(thumb,size=0x20) addr:0x020105b8
_ZN6status8HaveItem5setupEi kind:function(thumb,size=0x74) addr:0x020105d8
_ZN6status8HaveItem5clearEv kind:function(thumb,size=0x1e) addr:0x0201064c
_ZN6status8HaveItem3addEi kind:function(thumb,size=0x8) addr:0x0201066c
_ZN6status8HaveItem3delEi kind:function(thumb,size=0x14) addr:0x02010674
_ZN6status8HaveItem4sortEi kind:function(thumb,size=0x1a) addr:0x02010688
_ZN6status8HaveItem19setEquipmentForTestEi kind:function(thumb,size=0x14) addr:0x020106a4
_ZN6status8HaveItem20sortEquipmentForTestEi kind:function(thumb,size=0x14) addr:0x020106b8
_ZN6status8HaveItem27resetEquipmentWithItemIndexEi kind:function(thumb,size=0x3c) addr:0x020106cc
_ZN6status8HaveItem11isEquipmentEi kind:function(thumb,size=0xa) addr:0x02010708
_ZN6status8HaveItem13sortEquipmentEv kind:function(thumb,size=0x200) addr:0x02010714
_ZN6status8HaveItem7isSpaceEv kind:function(thumb,size=0x12) addr:0x02010914
_ZN6status10HaveStatusC1Ev kind:function(thumb,size=0xe) addr:0x02010928
_ZN6status10HaveStatusD1Ev kind:function(thumb,size=0xe) addr:0x02010938
_ZN6status10HaveStatus5setupEti kind:function(thumb,size=0x14) addr:0x02010948
_ZN6status10HaveStatus11setupPlayerEt kind:function(thumb,size=0x124) addr:0x0201095c
_ZN6status10HaveStatus12setupMonsterEtb kind:function(thumb,size=0x70) addr:0x02010a80
_ZN6status10HaveStatus9isLevelupEv kind:function(thumb,size=0x26) addr:0x02010af0
_ZN6status10HaveStatus12debugLevelupEi kind:function(thumb,size=0x26) addr:0x02010b18
_ZN6status10HaveStatus7levelupEi kind:function(thumb,size=0x304) addr:0x02010b40
_ZN6status10HaveStatus10levelupAddEt kind:function(thumb,size=0x2a) addr:0x02010e44
_ZN6status10HaveStatus12levelupAjustEttt kind:function(thumb,size=0x54) addr:0x02010e70
_ZN6status10HaveStatus14getLevelupInfoEi kind:function(thumb,size=0x98) addr:0x02010ec4
_ZN6status10HaveStatus6addExpEi kind:function(thumb,size=0x1e) addr:0x02010f5c
_ZN6status10HaveStatus6setExpEi kind:function(thumb,size=0x1e) addr:0x02010f7c
_ZN6status10HaveStatus8setLevelEh kind:function(thumb,size=0x24) addr:0x02010f9c
_ZN6status10HaveStatus13getLevelupExpEv kind:function(thumb,size=0x8) addr:0x02010fc0
_ZN6status10HaveStatus11addStrengthEc kind:function(thumb,size=0xc) addr:0x02010fc8
_ZN6status10HaveStatus10getAgilityEv kind:function(thumb,size=0x14) addr:0x02010fd4
_ZN6status10HaveStatus10AddAgilityEc kind:function(thumb,size=0xc) addr:0x02010fe8
_ZN6status10HaveStatus13addProtectionEc kind:function(thumb,size=0xc) addr:0x02010ff4
_ZN6status10HaveStatus9getWisdomEv kind:function(thumb,size=0x14) addr:0x02011000
_ZN6status10HaveStatus9addWisdomEc kind:function(thumb,size=0xc) addr:0x02011014
_ZN6status10HaveStatus7getLuckEv kind:function(thumb,size=0x14) addr:0x02011020
_ZN6status10HaveStatus5getHpEv kind:function(thumb,size=0x14) addr:0x02011034
_ZN6status10HaveStatus5setHpEt kind:function(thumb,size=0x4) addr:0x02011048
_ZN6status10HaveStatus8getHpMaxEv kind:function(thumb,size=0x14) addr:0x0201104c
_ZN6status10HaveStatus8addHpMaxEc kind:function(thumb,size=0x14) addr:0x02011060
_ZN6status10HaveStatus5getMpEv kind:function(thumb,size=0x14) addr:0x02011074
_ZN6status10HaveStatus5setMpEt kind:function(thumb,size=0x4) addr:0x02011088
_ZN6status10HaveStatus8getMpMaxEv kind:function(thumb,size=0x14) addr:0x0201108c
_ZN6status10HaveStatus8addMpMaxEc kind:function(thumb,size=0xc) addr:0x020110a0
_ZN6status10HaveStatus9addBaseHpEi kind:function(thumb,size=0x14) addr:0x020110ac
_ZN6status10HaveStatus9addBaseMpEi kind:function(thumb,size=0x1c) addr:0x020110c0
_ZN6status6ActionC1Ev kind:function(thumb,size=0xc) addr:0x020110dc
_ZN6status6Action5setupEiiii kind:function(thumb,size=0xc) addr:0x020110e8
_ZN6status6Action5clearEv kind:function(thumb,size=0xc) addr:0x020110f4
_ZN6status6Action8isEnableEv kind:function(thumb,size=0x14) addr:0x02011100
_ZN6status6Action3addEii kind:function(thumb,size=0xe) addr:0x02011114
_ZN6status6Action9getActionEv kind:function(thumb,size=0x4) addr:0x02011124
_ZN6status6Action16getUsuallyActionEv kind:function(thumb,size=0x4) addr:0x02011128
_ZN6status6Action8rememberEv kind:function(thumb,size=0x12) addr:0x0201112c
_ZN6status6Action10isRememberEv kind:function(thumb,size=0x1c) addr:0x02011140
_ZN6status6Action13isRememberingEv kind:function(thumb,size=0x1c) addr:0x0201115c
_ZN6status6Action16clearRememberingEv kind:function(thumb,size=0x10) addr:0x02011178
_ZN6status6Action10learnTypeAEii kind:function(thumb,size=0x6e) addr:0x02011188
_ZN6status10HaveActionC1Ev kind:function(thumb,size=0x20) addr:0x020111f8
_ZN6status10HaveActionD1Ev kind:function(thumb,size=0x2) addr:0x02011218
_ZN6status10HaveAction13setBattleModeEv kind:function(thumb,size=0xc) addr:0x0201121c
_ZN6status10HaveAction12isBattleModeEv kind:function(thumb,size=0x14) addr:0x02011228
_ZN6status10HaveAction11setTownModeEv kind:function(thumb,size=0xc) addr:0x0201123c
_ZN6status10HaveAction10isTownModeEv kind:function(thumb,size=0x14) addr:0x02011248
_ZN6status10HaveAction13getActionModeEv kind:function(thumb,size=0xc) addr:0x0201125c
_ZN6status10HaveAction13setActionModeENS0_10ActionModeE kind:function(thumb,size=0xc) addr:0x02011268
_ZN6status10HaveAction5setupEi kind:function(thumb,size=0xd4) addr:0x02011274
_ZN6status10HaveAction5clearEv kind:function(thumb,size=0x16) addr:0x02011348
_ZN6status10HaveAction7levelupEiiii kind:function(thumb,size=0xb8) addr:0x02011360
_ZN6status10HaveAction3addEii kind:function(thumb,size=0x30) addr:0x02011418
_ZN6status10HaveAction5learnEii kind:function(thumb,size=0x4a) addr:0x02011448
_ZN6status10HaveAction13getLearnTypeAEiii kind:function(thumb,size=0x12) addr:0x02011494
_ZN6status10HaveAction9getActionEi kind:function(thumb,size=0x3c) addr:0x020114a8
_ZN6status10HaveAction13getHaveActionEi kind:function(thumb,size=0x8) addr:0x020114e4
_ZN6status10HaveAction8getCountEv kind:function(thumb,size=0x20) addr:0x020114ec
_ZN6status10HaveAction11getAllCountEv kind:function(thumb,size=0x20) addr:0x0201150c
_ZN6status10HaveAction8isActionEi kind:function(thumb,size=0x2c) addr:0x0201152c
_ZN6status10HaveAction22isActionAlreadyLearnedEi kind:function(thumb,size=0x30) addr:0x02011558
_ZN6status10HaveAction20getRememberingActionEv kind:function(thumb,size=0x32) addr:0x02011588
_ZN6status10HaveAction10forceLearnEv kind:function(thumb,size=0x16) addr:0x020115bc
_ZN6status13HaveEquipmentC2Ev kind:function(thumb,size=0x28) addr:0x020115d4
_ZN6status13HaveEquipmentD1Ev kind:function(thumb,size=0x2) addr:0x020115fc
_ZN6status13HaveEquipmentD2Ev kind:function(thumb,size=0x2) addr:0x02011600
_ZN6status13HaveEquipment5setupEj kind:function(thumb,size=0x5c) addr:0x02011604
_ZN6status13HaveEquipment5clearEv kind:function(thumb,size=0x1e) addr:0x02011660
_ZN6status13HaveEquipment13setEquipment2E8ItemTypej kind:function(thumb,size=0x5c) addr:0x02011680
_ZN6status13HaveEquipment12setEquipmentEj kind:function(thumb,size=0x8a) addr:0x020116dc
_ZN6status13HaveEquipment14resetEquipmentE8ItemType kind:function(thumb,size=0x38) addr:0x02011768
_ZN6status13HaveEquipment10removeItemEj kind:function(thumb,size=0x4c) addr:0x020117a0
_ZN6status13HaveEquipment12getEquipmentE8ItemType kind:function(thumb,size=0x32) addr:0x020117ec
_ZN6status13HaveEquipment11isEquipmentEi kind:function(thumb,size=0x36) addr:0x02011820
_ZN6status13HaveEquipment16recalculateStatsEv kind:function(thumb,size=0x3a) addr:0x02011858
_ZN6status13HaveEquipment10calcEffectEi kind:function(thumb,size=0x70) addr:0x02011894
_ZN6status13HaveEquipment16getAbsoluteValueEi kind:function(thumb,size=0x8) addr:0x02011904
_ZN6status13HaveEquipment7beSpellE8ItemTypei kind:function(thumb,size=0x5c) addr:0x0201190c
_ZN6status13HaveEquipment10breakSpellE8ItemType kind:function(thumb,size=0x4c) addr:0x02011968
_ZN6status13HaveEquipment7isSpellE8ItemType kind:function(thumb,size=0x58) addr:0x020119b4
_ZN6status13HaveEquipment14hasSpellEffectEv kind:function(thumb,size=0x56) addr:0x02011a0c
_ZN6status13HaveEquipment20setSaveDataForPlayerEPN7profile14PROFILE_PLAYERE kind:function(thumb,size=0x1a) addr:0x02011a64
_ZN6status13HaveEquipment20setLoadDataForPlayerEPN7profile14PROFILE_PLAYERE kind:function(thumb,size=0x1a) addr:0x02011a80
_ZN6status14HaveStatusInfoC1Ev kind:function(thumb,size=0x78) addr:0x02011a9c
_ZN6status14HaveStatusInfoD1Ev kind:function(thumb,size=0x3e) addr:0x02011b14
_ZN6status14HaveStatusInfo5setupEii kind:function(thumb,size=0x190) addr:0x02011b54
_ZN6status14HaveStatusInfo11setupStatusEib kind:function(thumb,size=0x5e) addr:0x02011ce4
_ZN6status14HaveStatusInfo18setupActionDefenceEii kind:function(thumb,size=0x2e) addr:0x02011d44
_ZN6status14HaveStatusInfo7levelupEi kind:function(thumb,size=0x7e) addr:0x02011d74
_ZN6status14HaveStatusInfo11getStrengthEi kind:function(thumb,size=0x40) addr:0x02011df4
_ZN6status14HaveStatusInfo11addStrengthEi kind:function(thumb,size=0x10) addr:0x02011e34
_ZN6status14HaveStatusInfo10setAgilityEh kind:function(thumb,size=0x6) addr:0x02011e44
_ZN6status14HaveStatusInfo14getBaseAgilityEv kind:function(thumb,size=0x94) addr:0x02011e4c
_ZN6status14HaveStatusInfo10getAgilityEi kind:function(thumb,size=0xb8) addr:0x02011ee0
_ZN6status14HaveStatusInfo16setAgilityChangeEv kind:function(thumb,size=0x48) addr:0x02011f98
_ZN6status14HaveStatusInfo16getAgilityChangeEv kind:function(thumb,size=0x24) addr:0x02011fe0
_ZN6status14HaveStatusInfo18clearAgilityChangeEv kind:function(thumb,size=0xc) addr:0x02012004
_ZN6status14HaveStatusInfo13setProtectionEh kind:function(thumb,size=0x6) addr:0x02012010
_ZN6status14HaveStatusInfo13getProtectionEi kind:function(thumb,size=0x2a) addr:0x02012018
_ZN6status14HaveStatusInfo13addProtectionEi kind:function(thumb,size=0x10) addr:0x02012044
_ZN6status14HaveStatusInfo9getWisdomEi kind:function(thumb,size=0x44) addr:0x02012054
_ZN6status14HaveStatusInfo7getLuckEi kind:function(thumb,size=0x40) addr:0x02012098
_ZN6status14HaveStatusInfo6getExpEv kind:function(thumb,size=0x4) addr:0x020120d8
_ZN6status14HaveStatusInfo6addExpEi kind:function(thumb,size=0xc) addr:0x020120dc
_ZN6status14HaveStatusInfo13getLevelupExpEv kind:function(thumb,size=0xc) addr:0x020120e8
_ZN6status14HaveStatusInfo7getGoldEv kind:function(thumb,size=0x6) addr:0x020120f4
_ZN6status14HaveStatusInfo5setHpEt kind:function(thumb,size=0x1e) addr:0x020120fc
_ZN6status14HaveStatusInfo5getHpEv kind:function(thumb,size=0xe) addr:0x0201211c
_ZN6status14HaveStatusInfo9addBaseHpEi kind:function(thumb,size=0x58) addr:0x0201212c
_ZN6status14HaveStatusInfo9execDeathEv kind:function(thumb,size=0x52) addr:0x02012184
_ZN6status14HaveStatusInfo8setHpMaxEt kind:function(thumb,size=0xc) addr:0x020121d8
_ZN6status14HaveStatusInfo8getHpMaxEv kind:function(thumb,size=0x24) addr:0x020121e4
_ZN6status14HaveStatusInfo8addHpMaxEt kind:function(thumb,size=0x30) addr:0x02012208
_ZN6status14HaveStatusInfo5setMpEt kind:function(thumb,size=0x14) addr:0x02012238
_ZN6status14HaveStatusInfo5getMpEv kind:function(thumb,size=0xc) addr:0x0201224c
_ZN6status14HaveStatusInfo5addMpEi kind:function(thumb,size=0x14) addr:0x02012258
_ZN6status14HaveStatusInfo8setMpMaxEt kind:function(thumb,size=0xc) addr:0x0201226c
_ZN6status14HaveStatusInfo8getMpMaxEv kind:function(thumb,size=0x24) addr:0x02012278
_ZN6status14HaveStatusInfo15clearHpInBattleEv kind:function(thumb,size=0x24) addr:0x0201229c
_ZN6status14HaveStatusInfo13addHpInBattleENS0_10DiffStatusEi kind:function(thumb,size=0x84) addr:0x020122c0
_ZN6status14HaveStatusInfo13getHpInBattleENS0_10DiffStatusE kind:function(thumb,size=0x6) addr:0x02012344
_ZN6status14HaveStatusInfo19isNearDeathInBattleEi kind:function(thumb,size=0x26) addr:0x0201234c
_ZN6status14HaveStatusInfo15isDeathInBattleENS0_10DiffStatusE kind:function(thumb,size=0x10) addr:0x02012374
_ZN6status14HaveStatusInfo15clearMpInBattleEv kind:function(thumb,size=0x34) addr:0x02012384
_ZN6status14HaveStatusInfo13addMpInBattleENS0_10DiffStatusEi kind:function(thumb,size=0x54) addr:0x020123b8
_ZN6status14HaveStatusInfo13getMpInBattleENS0_10DiffStatusE kind:function(thumb,size=0x8) addr:0x0201240c
_ZN6status14HaveStatusInfo25clearStatusChangeInBattleEv kind:function(thumb,size=0x2c) addr:0x02012414
_ZN6status14HaveStatusInfo23setStatusChangeInBattleENS0_10DiffStatusE kind:function(thumb,size=0xcc) addr:0x02012440
_ZN6status14HaveStatusInfo22isStatusChangeInBattleENS0_10DiffStatusENS0_16MenuStatusChangeE kind:function(thumb,size=0x30) addr:0x0201250c
_ZN6status14HaveStatusInfo9setAttackEt kind:function(thumb,size=0x6) addr:0x0201253c
_ZN6status14HaveStatusInfo9getAttackEi kind:function(thumb,size=0x48) addr:0x02012544
_ZN6status14HaveStatusInfo13getBaseAttackEv kind:function(thumb,size=0x34) addr:0x0201258c
_ZN6status14HaveStatusInfo15setAttackChangeEv kind:function(thumb,size=0x58) addr:0x020125c0
_ZN6status14HaveStatusInfo15getAttackChangeEv kind:function(thumb,size=0x4) addr:0x02012618
_ZN6status14HaveStatusInfo14getBaseDefenceEv kind:function(thumb,size=0x54) addr:0x0201261c
_ZN6status14HaveStatusInfo13getClampValueEiii kind:function(thumb,size=0x10) addr:0x02012670
_ZN6status14HaveStatusInfo6getMinEii kind:function(thumb,size=0x8) addr:0x02012680
_ZN6status14HaveStatusInfo6getMaxEii kind:function(thumb,size=0x8) addr:0x02012688
_ZN6status14HaveStatusInfo10setDefenceEt kind:function(thumb,size=0x6) addr:0x02012690
_ZN6status14HaveStatusInfo10getDefenceEi kind:function(thumb,size=0x6c) addr:0x02012698
_ZN6status14HaveStatusInfo16setDefenceChangeEi kind:function(thumb,size=0x100) addr:0x02012704
_ZN6status14HaveStatusInfo16getDefenceChangeEv kind:function(thumb,size=0x24) addr:0x02012804
_ZN6status14HaveStatusInfo18clearDefenceChangeEv kind:function(thumb,size=0xc) addr:0x02012828
_ZN6status14HaveStatusInfo17getChangeStrengthEj kind:function(thumb,size=0xb8) addr:0x02012834
_ZN6status14HaveStatusInfo16getChangeAgilityEi kind:function(thumb,size=0x10c) addr:0x020128ec
_ZN6status14HaveStatusInfo15getChangeWisdomEj kind:function(thumb,size=0xbc) addr:0x020129f8
_ZN6status14HaveStatusInfo13getChangeLuckEj kind:function(thumb,size=0xbc) addr:0x02012ab4
_ZN6status14HaveStatusInfo15getChangeAttackEj kind:function(thumb,size=0xc4) addr:0x02012b70
_ZN6status14HaveStatusInfo16getChangeDefenceEj kind:function(thumb,size=0xdc) addr:0x02012c34
_ZN6status14HaveStatusInfo12setNearDeathEv kind:function(thumb,size=0x2e) addr:0x02012d10
_ZN6status14HaveStatusInfo7isDeathEv kind:function(thumb,size=0x12) addr:0x02012d40
_ZN6status14HaveStatusInfo8setDeathEv kind:function(thumb,size=0xc) addr:0x02012d54
_ZN6status14HaveStatusInfo7rebirthEv kind:function(thumb,size=0x12) addr:0x02012d60
_ZN6status14HaveStatusInfo8isPoisonEv kind:function(thumb,size=0x1a) addr:0x02012d74
_ZN6status14HaveStatusInfo9setPoisonEv kind:function(thumb,size=0x14) addr:0x02012d90
_ZN6status14HaveStatusInfo11detoxPoisonEv kind:function(thumb,size=0x1a) addr:0x02012da4
_ZN6status14HaveStatusInfo7isSpellEv kind:function(thumb,size=0x18) addr:0x02012dc0
_ZN6status14HaveStatusInfo12setEquipmentEi kind:function(thumb,size=0x12e) addr:0x02012dd8
_ZN6status14HaveStatusInfo15resetEquipment1Ei kind:function(thumb,size=0x24) addr:0x02012f08
_ZN6status14HaveStatusInfo15resetEquipment2E8ItemType kind:function(thumb,size=0x28) addr:0x02012f2c
_ZN6status14HaveStatusInfo12clearAllItemEv kind:function(thumb,size=0x18) addr:0x02012f54
_ZN6status14HaveStatusInfo16setItemEquipmentEi kind:function(thumb,size=0x24) addr:0x02012f6c
_ZN6status14HaveStatusInfo13isEquipEnableEi kind:function(thumb,size=0x1a) addr:0x02012f90
_ZN6status14HaveStatusInfo9execThrowEi kind:function(thumb,size=0x38) addr:0x02012fac
_ZN6status14HaveStatusInfo12setConditionENS0_9ConditionE kind:function(thumb,size=0x52) addr:0x02012fe4
_ZN6status14HaveStatusInfo12getConditionEv kind:function(thumb,size=0x3c) addr:0x02013038
_ZN6status14HaveStatusInfo8isPlayerEi kind:function(thumb,size=0x18) addr:0x02013074
_ZN6status14HaveStatusInfo8recoveryEv kind:function(thumb,size=0x3e) addr:0x0201308c
_ZN6status14HaveStatusInfo7revivalEv kind:function(thumb,size=0x28) addr:0x020130cc
_ZN6status14HaveStatusInfo23setUseActionEffectValueEi kind:function(thumb,size=0x26) addr:0x020130f4
_ZN6status14HaveStatusInfo28setUseActionEffectValueMultiEii kind:function(thumb,size=0xc) addr:0x0201311c
_ZN6status14HaveStatusInfo22setSpecialTargetDamageEi kind:function(thumb,size=0x8) addr:0x02013128
_ZN6status14HaveStatusInfo22getSpecialTargetDamageEv kind:function(thumb,size=0x8) addr:0x02013130
_ZN6status14HaveStatusInfo13setFubahaFlagEb kind:function(thumb,size=0x12) addr:0x02013138
_ZN6status14HaveStatusInfo12isFubahaFlagEv kind:function(thumb,size=0x14) addr:0x0201314c
_ZN6status14HaveStatusInfo16setBossDeathFlagEb kind:function(thumb,size=0x12) addr:0x02013160
_ZN6status14HaveStatusInfo15isBossDeathFlagEv kind:function(thumb,size=0x14) addr:0x02013174
_ZN6status14HaveStatusInfo13setEscapeFlagEb kind:function(thumb,size=0x20) addr:0x02013188
_ZN6status14HaveStatusInfo12isEscapeFlagEv kind:function(thumb,size=0x14) addr:0x020131a8
_ZN6status14HaveStatusInfo16setDisappearFlagEb kind:function(thumb,size=0x20) addr:0x020131bc
_ZN6status14HaveStatusInfo15isDisappearFlagEv kind:function(thumb,size=0x14) addr:0x020131dc
_ZN6status14HaveStatusInfo13setMosyasExecEb kind:function(thumb,size=0x20) addr:0x020131f0
_ZN6status14HaveStatusInfo12isMosyasExecEv kind:function(thumb,size=0x14) addr:0x02013210
_ZN6status14HaveStatusInfo16setMosyasReleaseEb kind:function(thumb,size=0x28) addr:0x02013224
_ZN6status14HaveStatusInfo15isMosyasReleaseEv kind:function(thumb,size=0x16) addr:0x0201324c
_ZN6status14HaveStatusInfo13setEvilPriestEb kind:function(thumb,size=0x20) addr:0x02013264
_ZN6status14HaveStatusInfo14setSleepAttackEb kind:function(thumb,size=0x28) addr:0x02013284
_ZN6status14HaveStatusInfo13isSleepAttackEv kind:function(thumb,size=0x16) addr:0x020132ac
_ZN6status14HaveStatusInfo14setMultiAttackEb kind:function(thumb,size=0x28) addr:0x020132c4
_ZN6status14HaveStatusInfo13setCallFriendEb kind:function(thumb,size=0x28) addr:0x020132ec
_ZN6status14HaveStatusInfo12isCallFriendEv kind:function(thumb,size=0x16) addr:0x02013314
_ZN6status14HaveStatusInfo14setSilverTarotEb kind:function(thumb,size=0x28) addr:0x0201332c
_ZN6status14HaveStatusInfo13isSilverTarotEv kind:function(thumb,size=0x16) addr:0x02013354
_ZN6status14HaveStatusInfo18setWeaponAddDamageEb kind:function(thumb,size=0x28) addr:0x0201336c
_ZN6status14HaveStatusInfo17isWeaponAddDamageEv kind:function(thumb,size=0x16) addr:0x02013394
_ZN6status14HaveStatusInfo20setConfuseMissAttackEb kind:function(thumb,size=0x28) addr:0x020133ac
_ZN6status14HaveStatusInfo19isConfuseMissAttackEv kind:function(thumb,size=0x16) addr:0x020133d4
_ZN6status14HaveStatusInfo17setAddEffectSleepEb kind:function(thumb,size=0x28) addr:0x020133ec
_ZN6status14HaveStatusInfo16isAddEffectSleepEv kind:function(thumb,size=0x16) addr:0x02013414
_ZN6status14HaveStatusInfo17setAddEffectSpazzEb kind:function(thumb,size=0x28) addr:0x0201342c
_ZN6status14HaveStatusInfo18setAddEffectPoisonEb kind:function(thumb,size=0x28) addr:0x02013454
_ZN6status14HaveStatusInfo20setAddEffectRecoveryEb kind:function(thumb,size=0x28) addr:0x0201347c
_ZN6status14HaveStatusInfo19isAddEffectRecoveryEv kind:function(thumb,size=0x16) addr:0x020134a4
_ZN6status14HaveStatusInfo20setAddEffectMahotoraEb kind:function(thumb,size=0x28) addr:0x020134bc
_ZN6status14HaveStatusInfo19isAddEffectMahotoraEv kind:function(thumb,size=0x16) addr:0x020134e4
_ZN6status14HaveStatusInfo18setAddEffectDamageEb kind:function(thumb,size=0x28) addr:0x020134fc
_ZN6status14HaveStatusInfo17isAddEffectDamageEv kind:function(thumb,size=0x16) addr:0x02013524
_ZN6status14HaveStatusInfo13setTargetJoukEb kind:function(thumb,size=0x28) addr:0x0201353c
_ZN6status14HaveStatusInfo12isTargetJoukEv kind:function(thumb,size=0x16) addr:0x02013564
_ZN6status14HaveStatusInfo15setMosyasTargetEb kind:function(thumb,size=0x20) addr:0x0201357c
_ZN6status14HaveStatusInfo14isMosyasTargetEv kind:function(thumb,size=0x10) addr:0x0201359c
_ZN6status14HaveStatusInfo13setKillMyselfEb kind:function(thumb,size=0x28) addr:0x020135ac
_ZN6status14HaveStatusInfo12isKillMyselfEv kind:function(thumb,size=0x16) addr:0x020135d4
_ZN6status14HaveStatusInfo16setMonsterChangeEb kind:function(thumb,size=0x28) addr:0x020135ec
_ZN6status14HaveStatusInfo15isMonsterChangeEv kind:function(thumb,size=0x16) addr:0x02013614
_ZN6status14HaveStatusInfo19setBaikirutoDisableEb kind:function(thumb,size=0x28) addr:0x0201362c
_ZN6status14HaveStatusInfo14setFirstMosyasEb kind:function(thumb,size=0x24) addr:0x02013654
_ZN6status14HaveStatusInfo13isFirstMosyasEv kind:function(thumb,size=0x14) addr:0x02013678
_ZN6status14HaveStatusInfo19setMahokantaCounterEb kind:function(thumb,size=0x24) addr:0x0201368c
_ZN6status14HaveStatusInfo18isMahokantaCounterEv kind:function(thumb,size=0x14) addr:0x020136b0
_ZN6status14HaveStatusInfo16setCounterDamageEb kind:function(thumb,size=0x24) addr:0x020136c4
_ZN6status14HaveStatusInfo9setDamageEb kind:function(thumb,size=0x28) addr:0x020136e8
_ZN6status14HaveStatusInfo8isDamageEv kind:function(thumb,size=0x16) addr:0x02013710
_ZN6status14HaveStatusInfo12setLastActorEb kind:function(thumb,size=0x28) addr:0x02013728
_ZN6status14HaveStatusInfo21setAddMahotoraExecuteEb kind:function(thumb,size=0x28) addr:0x02013750
_ZN6status14HaveStatusInfo20isAddMahotoraExecuteEv kind:function(thumb,size=0x16) addr:0x02013778
_ZN6status14HaveStatusInfo15setDamageMyselfEb kind:function(thumb,size=0x20) addr:0x02013790
_ZN6status14HaveStatusInfo14isDamageMyselfEv kind:function(thumb,size=0x14) addr:0x020137b0
_ZN6status14HaveStatusInfo17setSelfImmolationEb kind:function(thumb,size=0x20) addr:0x020137c4
_ZN6status14HaveStatusInfo16isSelfImmolationEv kind:function(thumb,size=0x14) addr:0x020137e4
_ZN6status14HaveStatusInfo15setFirstKaishinEb kind:function(thumb,size=0x20) addr:0x020137f8
_ZN6status14HaveStatusInfo14isFirstKaishinEv kind:function(thumb,size=0x18) addr:0x02013818
_ZN6status14HaveStatusInfo16setSecondKaishinEb kind:function(thumb,size=0x20) addr:0x02013830
_ZN6status14HaveStatusInfo15isSecondKaishinEv kind:function(thumb,size=0x18) addr:0x02013850
_ZN6status14HaveStatusInfo22setStatusChangeReleaseEb kind:function(thumb,size=0x20) addr:0x02013868
_ZN6status14HaveStatusInfo21isStatusChangeReleaseEv kind:function(thumb,size=0x18) addr:0x02013888
_ZN6status14HaveStatusInfo10setAstoronEb kind:function(thumb,size=0x20) addr:0x020138a0
_ZN6status14HaveStatusInfo9isAstoronEv kind:function(thumb,size=0x18) addr:0x020138c0
_ZN6status14HaveStatusInfo12setMpFailureEb kind:function(thumb,size=0x20) addr:0x020138d8
_ZN6status14HaveStatusInfo11isMpFailureEv kind:function(thumb,size=0x18) addr:0x020138f8
_ZN6status14HaveStatusInfo18setMahotoneFailureEb kind:function(thumb,size=0x20) addr:0x02013910
_ZN6status14HaveStatusInfo18setMegazaruRebirthEb kind:function(thumb,size=0x20) addr:0x02013930
_ZN6status14HaveStatusInfo17isMegazaruRebirthEv kind:function(thumb,size=0x18) addr:0x02013950
_ZN6status14HaveStatusInfo19setMegazaruRecoveryEb kind:function(thumb,size=0x24) addr:0x02013968
_ZN6status14HaveStatusInfo17setZaorikuRebirthEb kind:function(thumb,size=0x24) addr:0x0201398c
_ZN6status14HaveStatusInfo17setImmidiateDeathEb kind:function(thumb,size=0x24) addr:0x020139b0
_ZN6status14HaveStatusInfo16isImmidiateDeathEv kind:function(thumb,size=0x18) addr:0x020139d4
_ZN6status14HaveStatusInfo18setMultiFirstDeathEb kind:function(thumb,size=0x24) addr:0x020139ec
_ZN6status14HaveStatusInfo21setExecuteMeganteRingEb kind:function(thumb,size=0x24) addr:0x02013a10
_ZN6status14HaveStatusInfo20isExecuteMeganteRingEv kind:function(thumb,size=0x18) addr:0x02013a34
_ZN6status14HaveStatusInfo14setMeganteRingEb kind:function(thumb,size=0x24) addr:0x02013a4c
_ZN6status14HaveStatusInfo13isMeganteRingEv kind:function(thumb,size=0x18) addr:0x02013a70
_ZN6status14HaveStatusInfo15setMegazaruRingEb kind:function(thumb,size=0x24) addr:0x02013a88
_ZN6status14HaveStatusInfo14isMegazaruRingEv kind:function(thumb,size=0x18) addr:0x02013aac
_ZN6status14HaveStatusInfo22setDisableTextureCacheEb kind:function(thumb,size=0x24) addr:0x02013ac4
_ZN6status14HaveStatusInfo21isDisableTextureCacheEv kind:function(thumb,size=0x18) addr:0x02013ae8
_ZN6status14HaveStatusInfo13setAllKaishinEb kind:function(thumb,size=0x20) addr:0x02013b00
_ZN6status14HaveStatusInfo12isAllKaishinEv kind:function(thumb,size=0x14) addr:0x02013b20
_ZN6status14HaveStatusInfo17setGlbMeganteRingEb kind:function(thumb,size=0x20) addr:0x02013b34
_ZN6status14HaveStatusInfo16isGlbMeganteRingEv kind:function(thumb,size=0x14) addr:0x02013b54
_ZN6status14HaveStatusInfo18setGlbMegazaruRingEb kind:function(thumb,size=0x20) addr:0x02013b68
_ZN6status14HaveStatusInfo17isGlbMegazaruRingEv kind:function(thumb,size=0x18) addr:0x02013b88
_ZN6status14HaveStatusInfo13releaseMosyasEv kind:function(thumb,size=0x38) addr:0x02013ba0
_ZN6status14HaveStatusInfo17execStartOfBattleEv kind:function(thumb,size=0x4c) addr:0x02013bd8
_ZN6status14HaveStatusInfo14isActionEnableEv kind:function(thumb,size=0x78) addr:0x02013c24
_ZN6status14HaveStatusInfo14isAttackEnableEv kind:function(thumb,size=0x64) addr:0x02013c9c
_ZN6status12OptionStatusC1Ev kind:function(thumb,size=0x14) addr:0x02013d00
_ZN6status12OptionStatusD1Ev kind:function(thumb,size=0x2) addr:0x02013d14
_ZN6status12OptionStatus10initializeEv kind:function(thumb,size=0x1c) addr:0x02013d18
_ZN6status12OptionStatus11setSackSortEc kind:function(thumb,size=0x4) addr:0x02013d34
_ZN6status12OptionStatus11getSackSortEv kind:function(thumb,size=0x6) addr:0x02013d38
_ZN6status12OptionStatus12setBgmVolumeEc kind:function(thumb,size=0x1a) addr:0x02013d40
_ZN6status12OptionStatus12getBgmVolumeEv kind:function(thumb,size=0x6) addr:0x02013d5c
_ZN6status12OptionStatus11setSeVolumeEc kind:function(thumb,size=0x1a) addr:0x02013d64
_ZN6status12OptionStatus11getSeVolumeEv kind:function(thumb,size=0x6) addr:0x02013d80
_ZN6status12OptionStatus14setBattleSpeedEc kind:function(thumb,size=0x4) addr:0x02013d88
_ZN6status12OptionStatus14getBattleSpeedEv kind:function(thumb,size=0x6) addr:0x02013d8c
_ZN6status12OptionStatus9getButtonEv kind:function(thumb,size=0x6) addr:0x02013d94
_ZN6status8ItemDataC1Ev kind:function(thumb,size=0xa) addr:0x02013d9c
_ZN6status8ItemDataD1Ev kind:function(thumb,size=0x2) addr:0x02013da8
_ZN6status8ItemData5clearEv kind:function(thumb,size=0xa) addr:0x02013dac
_ZN6status12BaseHaveItemC2Ev kind:function(thumb,size=0xc) addr:0x02013db8
_ZN6status12BaseHaveItemD2Ev kind:function(thumb,size=0x2) addr:0x02013dc4
_ZN6status12BaseHaveItem5clearEv kind:function(thumb,size=0x2c) addr:0x02013dc8
_ZN6status12BaseHaveItem3addEi kind:function(thumb,size=0x8) addr:0x02013df4
_ZN6status12BaseHaveItem3delEi kind:function(thumb,size=0x8) addr:0x02013dfc
_ZN6status12BaseHaveItem6addOneEi kind:function(thumb,size=0x40) addr:0x02013e04
_ZN6status12BaseHaveItem6addNumEii kind:function(thumb,size=0x56) addr:0x02013e44
_ZN6status12BaseHaveItem6delOneEi kind:function(thumb,size=0x18) addr:0x02013e9c
_ZN6status12BaseHaveItem6delNumEi kind:function(thumb,size=0x2c) addr:0x02013eb4
_ZN6status12BaseHaveItem4sortEv kind:function(thumb,size=0xa8) addr:0x02013ee0
_ZN6status12BaseHaveItem8getCountEv kind:function(thumb,size=0x26) addr:0x02013f88
_ZN6status12BaseHaveItem11getMaxCountEv kind:function(thumb,size=0x4) addr:0x02013fb0
_ZN6status12BaseHaveItem7getItemEi kind:function(thumb,size=0x8) addr:0x02013fb4
_ZN6status12BaseHaveItem16getItemSortIndexEi kind:function(thumb,size=0x2a) addr:0x02013fbc
_ZN6status12BaseHaveItem11getItemDataEi kind:function(thumb,size=0x8) addr:0x02013fe8
_ZN6status12BaseHaveItem12getItemCountEi kind:function(thumb,size=0xa) addr:0x02013ff0
_ZN6status12BaseHaveItem6isItemEi kind:function(thumb,size=0x28) addr:0x02013ffc
_ZN6status12BaseHaveItem10getItemMaxEv kind:function(thumb,size=0x4) addr:0x02014024
_ZN6status12HaveItemSackC1Ev kind:function(thumb,size=0x48) addr:0x02014028
_ZN6status12HaveItemSackD1Ev kind:function(thumb,size=0x20) addr:0x02014070
_ZN6status12HaveItemSackaSEPS0_ kind:function(thumb,size=0x38) addr:0x02014090
_ZN6status12HaveItemSack4addsEii kind:function(thumb,size=0x3e) addr:0x020140c8
_ZN6status12HaveItemSack3addEi kind:function(thumb,size=0xc) addr:0x02014108
_ZN6status12HaveItemSack3delEi kind:function(thumb,size=0x8) addr:0x02014114
_ZN6status12HaveItemSack9execThrowEi kind:function(thumb,size=0xa) addr:0x0201411c
_ZN6status12HaveItemSack11sortOutSackENS0_8SortTypeE kind:function(thumb,size=0x130) addr:0x02014128
func_02014258 kind:function(thumb,size=0x28) addr:0x02014258
func_02014280 kind:function(thumb,size=0x5a) addr:0x02014280
_ZN6status13ActionDefenceC1Ev kind:function(thumb,size=0x2) addr:0x020142dc
_ZN6status13ActionDefenceD1Ev kind:function(thumb,size=0x2) addr:0x020142e0
_ZN6status13ActionDefence5setupEti kind:function(thumb,size=0x12) addr:0x020142e4
_ZN6status13ActionDefence11setupPlayerEv kind:function(thumb,size=0x3e) addr:0x020142f8
_ZN6status13ActionDefence12setupMonsterEi kind:function(thumb,size=0x124) addr:0x02014338
_ZN6status13ActionDefence9getEffectE17ActionDefenceTypeh kind:function(thumb,size=0x1c0) addr:0x0201445c
_ZN6status13ActionDefence4execE17ActionDefenceKind17ActionDefenceType kind:function(thumb,size=0x308) addr:0x0201461c
_ZN6status13ActionDefence11getEffectAIE17ActionDefenceTypeh kind:function(thumb,size=0x178) addr:0x02014924
_ZN6status13ActionDefence6execAIE17ActionDefenceKind17ActionDefenceType kind:function(thumb,size=0x308) addr:0x02014a9c
_ZN6status27getUsuallyAttackEffectValueEPNS_15CharacterStatusES1_ kind:function(thumb,size=0x114) addr:0x02014da4
_ZN6status27getKaishinAttackEffectValueEPNS_15CharacterStatusES1_ kind:function(thumb,size=0x2e) addr:0x02014eb8
_ZN6status27getTsukon1AttackEffectValueEPNS_15CharacterStatusE kind:function(thumb,size=0x14) addr:0x02014ee8
_ZN6status27getTsukon2AttackEffectValueEPNS_15CharacterStatusE kind:function(thumb,size=0x10) addr:0x02014efc
_ZN6status18getRandomVariationEiii kind:function(thumb,size=0x1c) addr:0x02014f0c
_ZN6status8execRulaEv kind:function(thumb,size=0x28) addr:0x02014f28
_ZN6status12execRiremitoEv kind:function(thumb,size=0x28) addr:0x02014f50
_ZN6status9execImpasEv kind:function(thumb,size=0x3c) addr:0x02014f78
_ZN6status12execLanarutaEv kind:function(thumb,size=0x5c) addr:0x02014fb4
_ZN6status15initCallMonsterEv kind:function(thumb,size=0x20) addr:0x02015010
_ZN6status14addCallMonsterEPNS_15CharacterStatusE kind:function(thumb,size=0x24) addr:0x02015030
_ZN6status19getCallMonsterCountEv kind:function(thumb,size=0xc) addr:0x02015054
_ZN6status20getCallMonsterStatusEi kind:function(thumb,size=0xc) addr:0x02015060
_ZN6status14setCallMonsterEi kind:function(thumb,size=0xc) addr:0x0201506c
_ZN6status13isCallMonsterEv kind:function(thumb,size=0xc) addr:0x02015078
_ZN6status20callDifferentMonsterEii kind:function(thumb,size=0x178) addr:0x02015084
_ZN6status28getCallDifferentMonsterIndexEv kind:function(thumb,size=0xc) addr:0x020151fc
_ZN6status33getParupunteMetalSlimeBeforeIndexEv kind:function(thumb,size=0xc) addr:0x02015208
_ZN6status20parupunteMetalSlime1Ev kind:function(thumb,size=0x30) addr:0x02015214
_ZN6status20parupunteMetalSlime2Ei kind:function(thumb,size=0x80) addr:0x02015244
_ZN6status20parupunteMetalSlime3Ei kind:function(thumb,size=0x50) addr:0x020152c4
_ZN6status14setMosyasIndexEi kind:function(thumb,size=0xc) addr:0x02015314
_ZN6status14getMosyasIndexEv kind:function(thumb,size=0xc) addr:0x02015320
_ZN6status9UseAction10initializeEv kind:function(thumb,size=0x18) addr:0x0201532c
_ZN6status9UseAction20getActionDefenceKindEi kind:function(thumb,size=0xdc) addr:0x02015344
_ZN6status9UseAction20getActionDefenceTypeEi kind:function(thumb,size=0x58) addr:0x02015420
_ZN6status9UseAction12isUsuallyUseEi kind:function(thumb,size=0x28) addr:0x02015478
_ZN6status9UseAction11isBattleUseEi kind:function(thumb,size=0x28) addr:0x020154a0
_ZN6status9UseAction8getUseMpEi kind:function(thumb,size=0x14) addr:0x020154c8
_ZN6status9UseAction14getMenuMessageEi kind:function(thumb,size=0x14) addr:0x020154dc
_ZN6status9UseAction14getWordDBIndexEi kind:function(thumb,size=0x14) addr:0x020154f0
_ZN6status9UseAction10getUseTypeEi kind:function(thumb,size=0x4c) addr:0x02015504
_ZN6status9UseAction10getUseAreaEi kind:function(thumb,size=0x58) addr:0x02015550
_ZN6status9UseAction22getEffectValueToPlayerEi kind:function(thumb,size=0x20) addr:0x020155a8
_ZN6status9UseAction23getEffectValueToMonsterEi kind:function(thumb,size=0x20) addr:0x020155c8
_ZN6status9UseAction24getEffectValueForAvarageEi kind:function(thumb,size=0x1c) addr:0x020155e8
_ZN6status9UseAction25getEffectValueToPlayerMinEi kind:function(thumb,size=0x14) addr:0x02015604
_ZN6status9UseAction26getEffectValueToMonsterMinEi kind:function(thumb,size=0x14) addr:0x02015618
_ZN6status9UseAction13getDamageTypeEi kind:function(thumb,size=0x110) addr:0x0201562c
_ZN6status9UseAction8isFubahaEi kind:function(thumb,size=0x24) addr:0x0201573c
_ZN6status9UseAction8isManusaEi kind:function(thumb,size=0x24) addr:0x02015760
_ZN6status9UseAction6isJoukEi kind:function(thumb,size=0x24) addr:0x02015784
_ZN6status9UseAction11isPowerSaveEi kind:function(thumb,size=0x24) addr:0x020157a8
_ZN6status9UseAction11isBaikirutoEi kind:function(thumb,size=0x20) addr:0x020157cc
_ZN6status9UseAction9isKaishinEi kind:function(thumb,size=0x24) addr:0x020157ec
_ZN6status9UseAction11isCrossFireEi kind:function(thumb,size=0x24) addr:0x02015810
_ZN6status9UseAction9isAstoronEi kind:function(thumb,size=0x24) addr:0x02015834
_ZN6status9UseAction11isMahokantaEi kind:function(thumb,size=0x24) addr:0x02015858
_ZN6status9UseAction10isMahosuteEi kind:function(thumb,size=0x24) addr:0x0201587c
_ZN6status9UseAction18isReleaseConfusionEi kind:function(thumb,size=0x20) addr:0x020158a0
_ZN6status9UseAction11isSplitJoukEi kind:function(thumb,size=0x24) addr:0x020158c0
_ZN6status9UseAction8isErrorAEi kind:function(thumb,size=0x24) addr:0x020158e4
_ZN6status9UseAction8isErrorBEi kind:function(thumb,size=0x24) addr:0x02015908
_ZN6status9UseAction9isDamageCEi kind:function(thumb,size=0x24) addr:0x0201592c
_ZN6status9UseAction9isDamageDEi kind:function(thumb,size=0x24) addr:0x02015950
_ZN6status9UseAction8isForceEEi kind:function(thumb,size=0x20) addr:0x02015974
_ZN6status9UseAction8isMultiFEi kind:function(thumb,size=0x24) addr:0x02015994
_ZN6status9UseAction7isAddHpEi kind:function(thumb,size=0x24) addr:0x020159b8
_ZN6status9UseAction9isMahotonEi kind:function(thumb,size=0x24) addr:0x020159dc
_ZN6status9UseAction19isTargetDeadOrAliveEi kind:function(thumb,size=0x24) addr:0x02015a00
_ZN6status9UseAction21isSpecialSelectTargetEi kind:function(thumb,size=0x24) addr:0x02015a24
_ZN6status9UseAction5isUseEiPNS_14HaveStatusInfoE kind:function(thumb,size=0x36) addr:0x02015a48
_ZN6status9UseAction9getAITypeEi kind:function(thumb,size=0x64) addr:0x02015a80
_ZN6status9UseAction14isMosyasActionEi kind:function(thumb,size=0x28) addr:0x02015ae4
_ZN6status9UseAction13getActionTypeEi kind:function(thumb,size=0x28) addr:0x02015b0c
func_02015b34 kind:function(thumb,size=0x3c) addr:0x02015b34
func_02015b70 kind:function(thumb,size=0x48) addr:0x02015b70
func_02015bb8 kind:function(thumb,size=0x44) addr:0x02015bb8
func_02015bfc kind:function(thumb,size=0x30) addr:0x02015bfc
_ZN6status10BaseAction10initializeEv kind:function(thumb,size=0x34) addr:0x02015c2c
_ZN6status10BaseAction5clearEv kind:function(thumb,size=0x38) addr:0x02015c60
_ZN6status10BaseAction4execERNS_14UseActionParamEi kind:function(thumb,size=0x628) addr:0x02015c98
func_020162c0 kind:function(thumb,size=0x1e8) addr:0x020162c0
func_020164a8 kind:function(thumb,size=0x2c0) addr:0x020164a8
func_02016768 kind:function(thumb,size=0x948) addr:0x02016768
.L_0201706c kind:label(thumb) addr:0x0201706c
func_020170b0 kind:function(thumb,size=0x48) addr:0x020170b0
func_020170f8 kind:function(thumb,size=0x2b8) addr:0x020170f8
func_020173b0 kind:function(thumb,size=0x1d4) addr:0x020173b0
func_02017584 kind:function(thumb,size=0x1f4) addr:0x02017584
func_02017778 kind:function(thumb,size=0x1b0) addr:0x02017778
func_02017928 kind:function(thumb,size=0x50) addr:0x02017928
func_02017978 kind:function(thumb,size=0x58) addr:0x02017978
func_020179d0 kind:function(thumb,size=0x88) addr:0x020179d0
func_02017a58 kind:function(thumb,size=0xe0) addr:0x02017a58
func_02017b38 kind:function(thumb,size=0x108) addr:0x02017b38
func_02017c40 kind:function(thumb,size=0x214) addr:0x02017c40
func_02017e54 kind:function(thumb,size=0x4c) addr:0x02017e54
func_02017ea0 kind:function(thumb,size=0x48) addr:0x02017ea0
func_02017ee8 kind:function(thumb,size=0xb0) addr:0x02017ee8
func_02017f98 kind:function(thumb,size=0x124) addr:0x02017f98
func_020180bc kind:function(thumb,size=0x5c) addr:0x020180bc
func_02018118 kind:function(thumb,size=0x64) addr:0x02018118
func_0201817c kind:function(thumb,size=0x60) addr:0x0201817c
func_020181dc kind:function(thumb,size=0x98) addr:0x020181dc
func_02018274 kind:function(thumb,size=0x98) addr:0x02018274
func_0201830c kind:function(thumb,size=0x88) addr:0x0201830c
func_02018394 kind:function(thumb,size=0x70) addr:0x02018394
func_02018404 kind:function(thumb,size=0xfc) addr:0x02018404
func_02018500 kind:function(thumb,size=0x58) addr:0x02018500
func_02018558 kind:function(thumb,size=0x7c) addr:0x02018558
func_020185d4 kind:function(thumb,size=0xb4) addr:0x020185d4
func_02018688 kind:function(thumb,size=0xa0) addr:0x02018688
func_02018728 kind:function(thumb,size=0x6c) addr:0x02018728
func_02018794 kind:function(thumb,size=0x104) addr:0x02018794
func_02018898 kind:function(thumb,size=0x148) addr:0x02018898
func_020189e0 kind:function(thumb,size=0xfc) addr:0x020189e0
func_02018adc kind:function(thumb,size=0x178) addr:0x02018adc
func_02018c54 kind:function(thumb,size=0x6c) addr:0x02018c54
func_02018cc0 kind:function(thumb,size=0xe0) addr:0x02018cc0
func_02018da0 kind:function(thumb,size=0x398) addr:0x02018da0
func_02019138 kind:function(thumb,size=0xa8) addr:0x02019138
func_020191e0 kind:function(thumb,size=0x8c) addr:0x020191e0
func_0201926c kind:function(thumb,size=0x12c) addr:0x0201926c
func_02019398 kind:function(thumb,size=0x64) addr:0x02019398
func_020193fc kind:function(thumb,size=0x9c) addr:0x020193fc
func_02019498 kind:function(thumb,size=0x128) addr:0x02019498
func_020195c0 kind:function(thumb,size=0xa8) addr:0x020195c0
func_02019668 kind:function(thumb,size=0x6c) addr:0x02019668
func_020196d4 kind:function(thumb,size=0x16c) addr:0x020196d4
func_02019840 kind:function(thumb,size=0xd4) addr:0x02019840
func_02019914 kind:function(thumb,size=0x28) addr:0x02019914
func_0201993c kind:function(thumb,size=0x400) addr:0x0201993c
func_02019d3c kind:function(thumb,size=0x28) addr:0x02019d3c
func_02019d64 kind:function(thumb,size=0x1c8) addr:0x02019d64
func_02019f2c kind:function(thumb,size=0x4c) addr:0x02019f2c
func_02019f78 kind:function(thumb,size=0x64) addr:0x02019f78
func_02019fdc kind:function(thumb,size=0x410) addr:0x02019fdc
func_0201a3ec kind:function(thumb,size=0x44) addr:0x0201a3ec
func_0201a430 kind:function(thumb,size=0x34) addr:0x0201a430
_ZN6status7UseItem10initializeEv kind:function(thumb,size=0x18) addr:0x0201a464
_ZN6status7UseItem11getItemTypeEi kind:function(thumb,size=0x6c) addr:0x0201a47c
_ZN6status7UseItem12getThrowTypeEi kind:function(thumb,size=0x34) addr:0x0201a4e8
_ZN6status7UseItem11getSellTypeEi kind:function(thumb,size=0x34) addr:0x0201a51c
_ZN6status7UseItem7isCurseEi kind:function(thumb,size=0x24) addr:0x0201a550
_ZN6status7UseItem6isLostEi kind:function(thumb,size=0x2c) addr:0x0201a574
_ZN6status7UseItem7isOrderEi kind:function(thumb,size=0x24) addr:0x0201a5a0
_ZN6status7UseItem12getSellPriceEi kind:function(thumb,size=0x10) addr:0x0201a5c4
_ZN6status7UseItem11getBuyPriceEi kind:function(thumb,size=0x10) addr:0x0201a5d4
_ZN6status7UseItem13isEquipEnableE7JobTypeii kind:function(thumb,size=0x148) addr:0x0201a5e4
_ZN6status7UseItem12getEquipTypeEi kind:function(thumb,size=0x48) addr:0x0201a72c
_ZN6status7UseItem13getEquipValueEi kind:function(thumb,size=0x10) addr:0x0201a774
_ZN6status7UseItem10getUseTypeEi kind:function(thumb,size=0x3c) addr:0x0201a784
_ZN6status7UseItem10getUseAreaEi kind:function(thumb,size=0x48) addr:0x0201a7c0
_ZN6status7UseItem9getActionEi kind:function(thumb,size=0x10) addr:0x0201a808
_ZN6status7UseItem18getBattleUseActionEi kind:function(thumb,size=0x10) addr:0x0201a818
_ZN6status7UseItem14getMenuMessageEi kind:function(thumb,size=0x10) addr:0x0201a828
_ZN6status7UseItem12isUsuallyUseEi kind:function(thumb,size=0x24) addr:0x0201a838
_ZN6status7UseItem16getTypeSortIndexEi kind:function(thumb,size=0x10) addr:0x0201a85c
_ZN6status7UseItem16getNameSortIndexEi kind:function(thumb,size=0x48) addr:0x0201a86c
_ZN6status7UseItem20getJudgeMessageCountEi kind:function(thumb,size=0x5c) addr:0x0201a8b4
_ZN6status7UseItem15getJudgeMessageEii kind:function(thumb,size=0x80) addr:0x0201a910
func_0201a990 kind:function(thumb,size=0xdc) addr:0x0201a990
func_0201aa6c kind:function(thumb,size=0x64) addr:0x0201aa6c
func_0201aad0 kind:function(thumb,size=0x8e) addr:0x0201aad0
func_0201ab60 kind:function(thumb,size=0x88) addr:0x0201ab60
func_0201abe8 kind:function(thumb,size=0x78) addr:0x0201abe8
func_0201ac60 kind:function(thumb,size=0xc4) addr:0x0201ac60
func_0201ad24 kind:function(thumb,size=0x18) addr:0x0201ad24
_ZN6status16HaveBattleStatusC1Ev kind:function(thumb,size=0x14) addr:0x0201ad3c
_ZN6status16HaveBattleStatusD1Ev kind:function(thumb,size=0x2) addr:0x0201ad50
_ZN6status16HaveBattleStatus10initializeEv kind:function(thumb,size=0x1c) addr:0x0201ad54
_ZN6status16HaveBattleStatus5setupE13CharacterTypeii kind:function(thumb,size=0x78) addr:0x0201ad70
_ZN6status16HaveBattleStatus20newBaseChangeMonsterEi kind:function(thumb,size=0x44) addr:0x0201ade8
_ZN6status16HaveBattleStatus30newBaseChangeMonsterFromPlayerEi kind:function(thumb,size=0x3c) addr:0x0201ae2c
_ZN6status16HaveBattleStatus28newBaseChangeMonsterReverse2Ev kind:function(thumb,size=0x34) addr:0x0201ae68
_ZN6status16HaveBattleStatus28newBaseChangeMonsterWithHpMpEi kind:function(thumb,size=0x34) addr:0x0201ae9c
_ZN6status16HaveBattleStatus23changeMonsterFromPlayerEi kind:function(thumb,size=0x84) addr:0x0201aed0
_ZN6status16HaveBattleStatus20changeMonsterReverseEv kind:function(thumb,size=0x38) addr:0x0201af54
_ZN6status16HaveBattleStatus11setupPlayerEv kind:function(thumb,size=0x2e) addr:0x0201af8c
_ZN6status16HaveBattleStatus12setupMonsterEv kind:function(thumb,size=0x184) addr:0x0201afbc
_ZN6status16HaveBattleStatus6isJoukEv kind:function(thumb,size=0xac) addr:0x0201b140
_ZN6status16HaveBattleStatus14setActionIndexEi kind:function(thumb,size=0x4) addr:0x0201b1ec
_ZN6status16HaveBattleStatus15setActionSelectENS0_9CallStartE kind:function(thumb,size=0x56) addr:0x0201b1f0
_ZN6status16HaveBattleStatus24setActionSelectForPlayerEv kind:function(thumb,size=0x52) addr:0x0201b248
_ZN6status16HaveBattleStatus25setActionSelectForMonsterENS0_9CallStartE kind:function(thumb,size=0x102) addr:0x0201b29c
_ZN6status16HaveBattleStatus26setActionPatternForMonsterEv kind:function(thumb,size=0x1ec) addr:0x0201b3a0
_ZN6status16HaveBattleStatus13getClampValueEiii kind:function(thumb,size=0x12) addr:0x0201b58c
_ZN6status16HaveBattleStatus24setActionIndexForMonsterEv kind:function(thumb,size=0x9c) addr:0x0201b5a0
_ZN6status16HaveBattleStatus14getActionIndexEi kind:function(thumb,size=0x98) addr:0x0201b63c
_ZN6status16HaveBattleStatus18getActionAnimationEi kind:function(thumb,size=0xa4) addr:0x0201b6d4
_ZN6status16HaveBattleStatus15setActionFailedEi kind:function(thumb,size=0x2e) addr:0x0201b778
_ZN6status16HaveBattleStatus14isActionFailedEv kind:function(thumb,size=0xe) addr:0x0201b7a8
_ZN6status16HaveBattleStatus16setActionDisableEi kind:function(thumb,size=0x22) addr:0x0201b7b8
_ZN6status16HaveBattleStatus15isActionDisableEv kind:function(thumb,size=0x16) addr:0x0201b7dc
_ZN6status16HaveBattleStatus18isActionAllDisableEv kind:function(thumb,size=0x12) addr:0x0201b7f4
_ZN6status16HaveBattleStatus19setActionDisable2ndEv kind:function(thumb,size=0x10) addr:0x0201b808
_ZN6status16HaveBattleStatus18isActionDisable2ndEv kind:function(thumb,size=0x16) addr:0x0201b818
_ZN6status16HaveBattleStatus21isActionAllDisable2ndEv kind:function(thumb,size=0x12) addr:0x0201b830
_ZN6status16HaveBattleStatus21clearActionDisable2ndEv kind:function(thumb,size=0x6) addr:0x0201b844
_ZN6status16HaveBattleStatus18isRestOneAction2ndEv kind:function(thumb,size=0x32) addr:0x0201b84c
_ZN6status16HaveBattleStatus10setRestOneEv kind:function(thumb,size=0x7c) addr:0x0201b880
_ZN6status16HaveBattleStatus10getRestNumEv kind:function(thumb,size=0x70) addr:0x0201b8fc
_ZN6status16HaveBattleStatus7isUseMpEv kind:function(thumb,size=0x3a) addr:0x0201b96c
_ZN6status16HaveBattleStatus9isMahotonEv kind:function(thumb,size=0x2c) addr:0x0201b9a8
_ZN6status16HaveBattleStatus12isFizzleZoneEv kind:function(thumb,size=0x2c) addr:0x0201b9d4
_ZN6status16HaveBattleStatus19checkRestMP_MahotonEv kind:function(thumb,size=0x38) addr:0x0201ba00
_ZN6status16HaveBattleStatus17clearGroupControlEv kind:function(thumb,size=0x14) addr:0x0201ba38
_ZN6status16HaveBattleStatus17checkGroupControlEv kind:function(thumb,size=0x2c) addr:0x0201ba4c
_ZN6status16HaveBattleStatus15getGroupControlEv kind:function(thumb,size=0x28) addr:0x0201ba78
_ZN6status16HaveBattleStatus16setSelectCommandENS0_13SelectCommandEi kind:function(thumb,size=0x6) addr:0x0201baa0
_ZN6status16HaveBattleStatus16getSelectCommandEv kind:function(thumb,size=0x4) addr:0x0201baa8
_ZN6status16HaveBattleStatus18clearSelectCommandEv kind:function(thumb,size=0xc) addr:0x0201baac
_ZN6status16HaveBattleStatus11startBattleEv kind:function(thumb,size=0x30) addr:0x0201bab8
_ZN6status16HaveBattleStatus16execStartOfRoundEv kind:function(thumb,size=0x18) addr:0x0201bae8
_ZN6status16HaveBattleStatus14setMultiActionEv kind:function(thumb,size=0xc) addr:0x0201bb00
_ZN6status16HaveBattleStatus13isMultiActionEv kind:function(thumb,size=0xbe) addr:0x0201bb0c
_ZN6status16HaveBattleStatus16setupTarotActionEv kind:function(thumb,size=0x98) addr:0x0201bbcc
_ZN6status16HaveBattleStatus20setupParupunteActionEv kind:function(thumb,size=0x94) addr:0x0201bc64
_ZN6status16HaveBattleStatus18setupConfuseActionEv kind:function(thumb,size=0x38c) addr:0x0201bcf8
func_0201c084 kind:function(thumb,size=0x13c) addr:0x0201c084
func_0201c1c0 kind:function(thumb,size=0xe) addr:0x0201c1c0
func_0201c1d0 kind:function(thumb,size=0x10) addr:0x0201c1d0
func_0201c1e0 kind:function(thumb,size=0x38) addr:0x0201c1e0
func_0201c218 kind:function(thumb,size=0x30) addr:0x0201c218
func_0201c248 kind:function(thumb,size=0x8) addr:0x0201c248
func_0201c250 kind:function(thumb,size=0x20) addr:0x0201c250
func_0201c270 kind:function(thumb,size=0x16) addr:0x0201c270
func_0201c288 kind:function(thumb,size=0x8) addr:0x0201c288
func_0201c290 kind:function(thumb,size=0x2) addr:0x0201c290
func_0201c294 kind:function(thumb,size=0xc8) addr:0x0201c294
func_0201c35c kind:function(thumb,size=0x2) addr:0x0201c35c
_ZN6status11StageStatus10initializeEv kind:function(thumb,size=0x12c) addr:0x0201c360
_ZN6status11StageStatus5setupEPc kind:function(thumb,size=0x22c) addr:0x0201c48c
_ZN6status11StageStatus10setupFieldEv kind:function(thumb,size=0x9c) addr:0x0201c6b8
_ZN6status11StageStatus7cleanupEv kind:function(thumb,size=0x2) addr:0x0201c754
_ZN6status11StageStatus17setTimeZoneEnableEi kind:function(thumb,size=0x16) addr:0x0201c758
_ZN6status11StageStatus16isTimeZoneEnableEv kind:function(thumb,size=0xc) addr:0x0201c770
_ZN6status11StageStatus11setTimeZoneE9TIME_ZONE kind:function(thumb,size=0x46) addr:0x0201c77c
_ZN6status11StageStatus11getTimeZoneEv kind:function(thumb,size=0x6) addr:0x0201c7c4
_ZN6status11StageStatus12setWorldTimeEi kind:function(thumb,size=0x6) addr:0x0201c7cc
_ZN6status11StageStatus12getWorldTimeEv kind:function(thumb,size=0x6) addr:0x0201c7d4
_ZN6status11StageStatus10setMapIconEi kind:function(thumb,size=0x16) addr:0x0201c7dc
_ZN6status11StageStatus9isMapIconEv kind:function(thumb,size=0x10) addr:0x0201c7f4
_ZN6status11StageStatus11setShopIconEi kind:function(thumb,size=0x16) addr:0x0201c804
_ZN6status11StageStatus10isShopIconEv kind:function(thumb,size=0x10) addr:0x0201c81c
_ZN6status11StageStatus13setCameraIconEi kind:function(thumb,size=0x16) addr:0x0201c82c
_ZN6status11StageStatus12isCameraIconEv kind:function(thumb,size=0x10) addr:0x0201c844
_ZN6status11StageStatus7setRulaEb kind:function(thumb,size=0x16) addr:0x0201c854
_ZN6status11StageStatus6isRulaEv kind:function(thumb,size=0x10) addr:0x0201c86c
_ZN6status11StageStatus14setRulaDisableEb kind:function(thumb,size=0x1c) addr:0x0201c87c
_ZN6status11StageStatus13isRulaDisableEv kind:function(thumb,size=0x12) addr:0x0201c898
_ZN6status11StageStatus11setRiremitoEb kind:function(thumb,size=0x16) addr:0x0201c8ac
_ZN6status11StageStatus10isRiremitoEv kind:function(thumb,size=0x10) addr:0x0201c8c4
_ZN6status11StageStatus18setRiremitoDisableEb kind:function(thumb,size=0x1c) addr:0x0201c8d4
_ZN6status11StageStatus17isRiremitoDisableEv kind:function(thumb,size=0x12) addr:0x0201c8f0
_ZN6status11StageStatus11setLanarutaEi kind:function(thumb,size=0x16) addr:0x0201c904
_ZN6status11StageStatus10isLanarutaEv kind:function(thumb,size=0x10) addr:0x0201c91c
_ZN6status11StageStatus18setLanarutaDisableEb kind:function(thumb,size=0x1c) addr:0x0201c92c
_ZN6status11StageStatus17isLanarutaDisableEv kind:function(thumb,size=0x12) addr:0x0201c948
_ZN6status11StageStatus11setToramanaEi kind:function(thumb,size=0xc) addr:0x0201c95c
_ZN6status11StageStatus10isToramanaEv kind:function(thumb,size=0xc) addr:0x0201c968
_ZN6status11StageStatus13setBashaEnterEb kind:function(thumb,size=0x16) addr:0x0201c974
_ZN6status11StageStatus12isBashaEnterEv kind:function(thumb,size=0x10) addr:0x0201c98c
_ZN6status11StageStatus14setBashaEnableEb kind:function(thumb,size=0x1c) addr:0x0201c99c
_ZN6status11StageStatus13isBashaEnableEv kind:function(thumb,size=0x12) addr:0x0201c9b8
_ZN6status11StageStatus10setEncountEb kind:function(thumb,size=0x1c) addr:0x0201c9cc
_ZN6status11StageStatus9isEncountEv kind:function(thumb,size=0x12) addr:0x0201c9e8
_ZN6status11StageStatus15setEventEncountEb kind:function(thumb,size=0x1c) addr:0x0201c9fc
_ZN6status11StageStatus12setAbortSaveEi kind:function(thumb,size=0x1c) addr:0x0201ca18
_ZN6status11StageStatus11isAbortSaveEv kind:function(thumb,size=0x12) addr:0x0201ca34
_ZN6status11StageStatus15isAbortSaveTownEv kind:function(thumb,size=0xb0) addr:0x0201ca48
_ZN6status11StageStatus18isAbortSaveDungeonEv kind:function(thumb,size=0xb0) addr:0x0201caf8
_ZN6status11StageStatus13setBtlMapNameEPc kind:function(thumb,size=0x16) addr:0x0201cba8
_ZN6status11StageStatus20setBtlMapNameOnFieldE8LandType kind:function(thumb,size=0x150) addr:0x0201cbc0
_ZN6status11StageStatus16getTraderMapNameEv kind:function(thumb,size=0x6c) addr:0x0201cd10
_ZN6status11StageStatus19getInnKeeperMapNameEv kind:function(thumb,size=0x6c) addr:0x0201cd7c
_ZN6status11StageStatus13getBtlMapNameEv kind:function(thumb,size=0x5c) addr:0x0201cde8
_ZN6status11StageStatus15setEvBtlMapNameEPc kind:function(thumb,size=0x16) addr:0x0201ce44
_ZN6status11StageStatus15getEvBtlMapNameEv kind:function(thumb,size=0x4c) addr:0x0201ce5c
_ZN6status11StageStatus15updateBattleMapEv kind:function(thumb,size=0xc) addr:0x0201cea8
_ZN6status11StageStatus10setMapNameEPc kind:function(thumb,size=0x14) addr:0x0201ceb4
_ZN6status11StageStatus10getMapNameEv kind:function(thumb,size=0x4) addr:0x0201cec8
_ZN6status11StageStatus16setChurchMapNameEPc kind:function(thumb,size=0x18) addr:0x0201cecc
_ZN6status11StageStatus16getChurchMapNameEv kind:function(thumb,size=0x6) addr:0x0201cee4
_ZN6status11StageStatus15pushCameraAngleEN3dss12Vector3shortE kind:function(thumb,size=0x24) addr:0x0201ceec
_ZN6status11StageStatus14popCameraAngleEv kind:function(thumb,size=0x4) addr:0x0201cf10
_ZN6status11StageStatus10setMapVeilEi kind:function(thumb,size=0x3c) addr:0x0201cf14
_ZN6status11StageStatus10getMapVeilEii kind:function(thumb,size=0x2e) addr:0x0201cf50
_ZN6status11StageStatus9isMapVeilEii kind:function(thumb,size=0x1a) addr:0x0201cf80
_ZN6status11StageStatus13setSymbolFlagEi kind:function(thumb,size=0x2a) addr:0x0201cf9c
_ZN6status11StageStatus13getSymbolFlagEi kind:function(thumb,size=0x30) addr:0x0201cfc8
_ZN6status11StageStatus14initSymbolFlagEv kind:function(thumb,size=0x18) addr:0x0201cff8
_ZN6status11StageStatus11setFurnFlagEi kind:function(thumb,size=0x2a) addr:0x0201d010
_ZN6status11StageStatus11getFurnFlagEi kind:function(thumb,size=0x30) addr:0x0201d03c
_ZN6status11StageStatus14removeFurnFlagEi kind:function(thumb,size=0x2c) addr:0x0201d06c
_ZN6status11StageStatus12initFurnFlagEv kind:function(thumb,size=0x1c) addr:0x0201d098
_ZN6status11StageStatus15setDoorOpenFlagEi kind:function(thumb,size=0x2a) addr:0x0201d0b4
_ZN6status11StageStatus15getDoorOpenFlagEi kind:function(thumb,size=0x2c) addr:0x0201d0e0
_ZN6status11StageStatus18removeDoorOpenFlagEi kind:function(thumb,size=0x30) addr:0x0201d10c
_ZN6status11StageStatus16initDoorOpenFlagEv kind:function(thumb,size=0x18) addr:0x0201d13c
_ZN6status11StageStatus16setFurnBreakFlagEi kind:function(thumb,size=0x2a) addr:0x0201d154
_ZN6status11StageStatus16getFurnBreakFlagEi kind:function(thumb,size=0x30) addr:0x0201d180
_ZN6status11StageStatus17initFurnBreakFlagEv kind:function(thumb,size=0x18) addr:0x0201d1b0
_ZN6status11StageStatus15playerClearFlagEv kind:function(thumb,size=0x8) addr:0x0201d1c8
_ZN6status11StageStatus15playerFlagClearEv kind:function(thumb,size=0x2c) addr:0x0201d1d0
_ZN6status11StageStatus11setRuraFlagEi kind:function(thumb,size=0x40) addr:0x0201d1fc
_ZN6status11StageStatus13setRuraTownIDEi kind:function(thumb,size=0x8) addr:0x0201d23c
_ZN6status11StageStatus13getRuraTownIDEv kind:function(thumb,size=0x8) addr:0x0201d244
_ZN6status11StageStatus10setRanaMapEi kind:function(thumb,size=0x28) addr:0x0201d24c
_ZN6status11StageStatus14setRanaMapNameEPc kind:function(thumb,size=0x14) addr:0x0201d274
_ZN6status11StageStatus14collectMapFlagEN7profile8SAVETYPEEPNS1_13PROFILE_PARTYE kind:function(thumb,size=0x80) addr:0x0201d288
_ZN6status11StageStatus14deliverMapFlagEN7profile8SAVETYPEEPNS1_13PROFILE_PARTYE kind:function(thumb,size=0x8c) addr:0x0201d308
_ZN6status11StageStatus11setFallFlagEi kind:function(thumb,size=0x8) addr:0x0201d394
_ZN6status11StageStatus11getFallFlagEv kind:function(thumb,size=0x8) addr:0x0201d39c
func_0201d3a4 kind:function(thumb,size=0xbc) addr:0x0201d3a4
func_0201d460 kind:function(thumb,size=0x6) addr:0x0201d460
func_0201d468 kind:function(thumb,size=0x2) addr:0x0201d468
_ZN6status10GameStatus11setPlayTimeEj kind:function(thumb,size=0x10) addr:0x0201d46c
_ZN6status10GameStatus11addPlayTimeEj kind:function(thumb,size=0x14) addr:0x0201d47c
_ZN6status10GameStatus11getPlayTimeEv kind:function(thumb,size=0x4) addr:0x0201d490
_ZN6status10GameStatus13resetUniqueIDEv kind:function(thumb,size=0x2e) addr:0x0201d494
_ZN6status10GameStatus11getUniqueIDEv kind:function(thumb,size=0x12) addr:0x0201d4c4
_ZN6status10GameStatus11setUniqueIDEj kind:function(thumb,size=0x4) addr:0x0201d4d8
func_0201d4dc kind:function(thumb,size=0xe) addr:0x0201d4dc
func_0201d4ec kind:function(thumb,size=0xe) addr:0x0201d4ec
func_0201d4fc kind:function(thumb,size=0x18) addr:0x0201d4fc
func_0201d514 kind:function(thumb,size=0xd8) addr:0x0201d514
func_0201d5ec kind:function(thumb,size=0x168) addr:0x0201d5ec
func_0201d754 kind:function(thumb,size=0x28) addr:0x0201d754
func_0201d77c kind:function(thumb,size=0x2c) addr:0x0201d77c
func_0201d7a8 kind:function(thumb,size=0x34) addr:0x0201d7a8
func_0201d7dc kind:function(thumb,size=0x68) addr:0x0201d7dc
func_0201d844 kind:function(thumb,size=0x1a) addr:0x0201d844
func_0201d860 kind:function(thumb,size=0x2) addr:0x0201d860
_ZN6status8GameFlag3setEj kind:function(thumb,size=0x1c) addr:0x0201d864
_ZN6status8GameFlag6removeEj kind:function(thumb,size=0x1c) addr:0x0201d880
_ZN6status8GameFlag5checkEj kind:function(thumb,size=0x1a) addr:0x0201d89c
_ZN6status8GameFlag5clearEv kind:function(thumb,size=0xe) addr:0x0201d8b8
func_0201d8c8 kind:function(thumb,size=0x64) addr:0x0201d8c8
func_0201d92c kind:function(thumb,size=0x1c) addr:0x0201d92c
func_0201d948 kind:function(thumb,size=0x2c) addr:0x0201d948
func_0201d974 kind:function(arm,size=0x2c) addr:0x0201d974
func_0201d9a0 kind:function(arm,size=0x14) addr:0x0201d9a0
func_0201d9b4 kind:function(arm,size=0x20) addr:0x0201d9b4
func_0201d9d4 kind:function(arm,size=0x48) addr:0x0201d9d4
func_0201da1c kind:function(arm,size=0xac) addr:0x0201da1c
func_0201dac8 kind:function(arm,size=0x580) addr:0x0201dac8
func_0201e048 kind:function(arm,size=0x68) addr:0x0201e048
func_0201e0b0 kind:function(arm,size=0x60) addr:0x0201e0b0
func_0201e110 kind:function(arm,size=0x34) addr:0x0201e110
func_0201e144 kind:function(arm,size=0x34) addr:0x0201e144
func_0201e178 kind:function(arm,size=0x1c) addr:0x0201e178
func_0201e194 kind:function(thumb,size=0x30) addr:0x0201e194
func_0201e1c4 kind:function(thumb,size=0x30) addr:0x0201e1c4
func_0201e1f4 kind:function(thumb,size=0x40) addr:0x0201e1f4
func_0201e234 kind:function(thumb,size=0x2c) addr:0x0201e234
func_0201e260 kind:function(thumb,size=0x94) addr:0x0201e260
func_0201e2f4 kind:function(thumb,size=0x22) addr:0x0201e2f4
func_0201e318 kind:function(thumb,size=0x38) addr:0x0201e318
func_0201e350 kind:function(thumb,size=0xa4) addr:0x0201e350
func_0201e3f4 kind:function(thumb,size=0x160) addr:0x0201e3f4
func_0201e554 kind:function(thumb,size=0x120) addr:0x0201e554
func_0201e674 kind:function(thumb,size=0xe) addr:0x0201e674
func_0201e684 kind:function(thumb,size=0x40) addr:0x0201e684
func_0201e6c4 kind:function(thumb,size=0x1c) addr:0x0201e6c4
_ZN6status12StatusChangeC1Ev kind:function(thumb,size=0x24) addr:0x0201e6e0
_ZN6status12StatusChangeD1Ev kind:function(thumb,size=0x18) addr:0x0201e704
_ZN6status12StatusChange5setupEib kind:function(thumb,size=0x3f4) addr:0x0201e71c
_ZN6status12StatusChange6setup2ENS0_6StatusEi kind:function(thumb,size=0x180) addr:0x0201eb10
_ZN6status12StatusChange5clearEv kind:function(thumb,size=0x16) addr:0x0201ec90
_ZN6status12StatusChange16canPerformActionEi kind:function(thumb,size=0x3c) addr:0x0201eca8
_ZN6status12StatusChange15checkValidAfterEi kind:function(thumb,size=0x7e) addr:0x0201ece4
_ZN6status12StatusChange8isEnableENS0_6StatusE kind:function(thumb,size=0x20) addr:0x0201ed64
_ZN6status12StatusChange7setTurnENS0_6StatusEc kind:function(thumb,size=0x18) addr:0x0201ed84
_ZN6status12StatusChange15execStartOfTurnEv kind:function(thumb,size=0x34) addr:0x0201ed9c
_ZN6status12StatusChange13execEndOfTurnEv kind:function(thumb,size=0x34) addr:0x0201edd0
_ZN6status12StatusChange14execEndOfRoundEv kind:function(thumb,size=0x2a) addr:0x0201ee04
_ZN6status12StatusChange15execEndOfBattleEv kind:function(thumb,size=0x24) addr:0x0201ee30
_ZN6status12StatusChange9isReleaseEv kind:function(thumb,size=0x20) addr:0x0201ee54
_ZN6status12StatusChange15getExecMessage1ENS0_6StatusE kind:function(thumb,size=0x34) addr:0x0201ee74
_ZN6status12StatusChange7releaseENS0_6StatusE kind:function(thumb,size=0x10) addr:0x0201eea8
_ZN6status12StatusChange14getActionIndexENS0_6StatusE kind:function(thumb,size=0x1c) addr:0x0201eeb8
_ZN6status12StatusChange14getExecMessageENS0_6StatusE kind:function(thumb,size=0x3c) addr:0x0201eed4
_ZN6status12StatusChange17getResultMessage1ENS0_6StatusE kind:function(thumb,size=0x3c) addr:0x0201ef10
_ZN6status12StatusChange17getResultMessage2ENS0_6StatusE13CharacterType kind:function(thumb,size=0x5c) addr:0x0201ef4c
_ZN6status12StatusChange17getResultMessage3ENS0_6StatusE13CharacterType kind:function(thumb,size=0x48) addr:0x0201efa8
_ZN6status12StatusChange21getAgainEnableMessageENS0_6StatusE kind:function(thumb,size=0x20) addr:0x0201eff0
_ZN6status12StatusChange22getAgainDisableMessageENS0_6StatusE kind:function(thumb,size=0x10) addr:0x0201f010
_ZN6status12StatusChange17getReleaseMessageEv kind:function(thumb,size=0x34) addr:0x0201f020
_ZN6status12StatusChange15setupFizzleZoneEv kind:function(thumb,size=0x14) addr:0x0201f054
_ZN6status12StatusChange5printEv kind:function(thumb,size=0xc2) addr:0x0201f068
func_0201f12c kind:function(arm,size=0x20) addr:0x0201f12c
func_0201f14c kind:function(arm,size=0x20) addr:0x0201f14c
func_0201f16c kind:function(arm,size=0x54) addr:0x0201f16c
func_0201f1c0 kind:function(arm,size=0x2c) addr:0x0201f1c0
func_0201f1ec kind:function(arm,size=0x74) addr:0x0201f1ec
func_0201f260 kind:function(arm,size=0x1c) addr:0x0201f260
func_0201f27c kind:function(arm,size=0x90) addr:0x0201f27c
func_0201f30c kind:function(arm,size=0x28) addr:0x0201f30c
func_0201f334 kind:function(arm,size=0x28) addr:0x0201f334
func_0201f35c kind:function(arm,size=0x24) addr:0x0201f35c
func_0201f380 kind:function(arm,size=0x38) addr:0x0201f380
func_0201f3b8 kind:function(arm,size=0x18) addr:0x0201f3b8
func_0201f3d0 kind:function(arm,size=0x14) addr:0x0201f3d0
func_0201f3e4 kind:function(arm,size=0x10) addr:0x0201f3e4
func_0201f3f4 kind:function(arm,size=0x18) addr:0x0201f3f4
func_0201f40c kind:function(arm,size=0x28) addr:0x0201f40c
func_0201f434 kind:function(arm,size=0x24) addr:0x0201f434
func_0201f458 kind:function(arm,size=0x7c) addr:0x0201f458
func_0201f4d4 kind:function(arm,size=0x20) addr:0x0201f4d4
func_0201f4f4 kind:function(arm,size=0x2c) addr:0x0201f4f4
func_0201f520 kind:function(arm,size=0x6c) addr:0x0201f520
func_0201f58c kind:function(arm,size=0x20) addr:0x0201f58c
func_0201f5ac kind:function(arm,size=0x2c) addr:0x0201f5ac
func_0201f5d8 kind:function(arm,size=0x38) addr:0x0201f5d8
func_0201f610 kind:function(arm,size=0x44) addr:0x0201f610
func_0201f654 kind:function(arm,size=0x9c) addr:0x0201f654
func_0201f6f0 kind:function(arm,size=0x1c) addr:0x0201f6f0
func_0201f70c kind:function(arm,size=0xcc) addr:0x0201f70c
func_0201f7d8 kind:function(arm,size=0x1d0) addr:0x0201f7d8
func_0201f9a8 kind:function(arm,size=0xfc) addr:0x0201f9a8
func_0201faa4 kind:function(arm,size=0x128) addr:0x0201faa4
func_0201fbcc kind:function(arm,size=0x138) addr:0x0201fbcc
func_0201fd04 kind:function(arm,size=0x7c) addr:0x0201fd04
func_0201fd80 kind:function(arm,size=0x7c) addr:0x0201fd80
func_0201fdfc kind:function(arm,size=0x40) addr:0x0201fdfc
func_0201fe3c kind:function(arm,size=0x58) addr:0x0201fe3c
func_0201fe94 kind:function(arm,size=0x1c) addr:0x0201fe94
func_0201feb0 kind:function(arm,size=0x34) addr:0x0201feb0
func_0201fee4 kind:function(arm,size=0x34) addr:0x0201fee4
func_0201ff18 kind:function(arm,size=0xf0) addr:0x0201ff18
func_02020008 kind:function(arm,size=0x28) addr:0x02020008
func_02020030 kind:function(arm,size=0x2a0c) addr:0x02020030
func_02022a3c kind:function(arm,size=0x4) addr:0x02022a3c
func_02022a40 kind:function(arm,size=0x4) addr:0x02022a40
func_02022a44 kind:function(arm,size=0x4) addr:0x02022a44
func_02022a48 kind:function(arm,size=0x4) addr:0x02022a48
func_02022a4c kind:function(arm,size=0x4) addr:0x02022a4c
func_02022a50 kind:function(arm,size=0x4) addr:0x02022a50
func_02022a54 kind:function(arm,size=0x4) addr:0x02022a54
func_02022a58 kind:function(arm,size=0x4) addr:0x02022a58
func_02022a5c kind:function(arm,size=0x4) addr:0x02022a5c
func_02022a60 kind:function(arm,size=0x4) addr:0x02022a60
func_02022a64 kind:function(arm,size=0x4) addr:0x02022a64
func_02022a68 kind:function(arm,size=0x4) addr:0x02022a68
func_02022a6c kind:function(arm,size=0x4) addr:0x02022a6c
func_02022a70 kind:function(arm,size=0x4) addr:0x02022a70
func_02022a74 kind:function(arm,size=0x4) addr:0x02022a74
func_02022a78 kind:function(arm,size=0x4) addr:0x02022a78
func_02022a7c kind:function(arm,size=0x4) addr:0x02022a7c
_ZN6status16DQ4HaveEquipmentC1Ev kind:function(thumb,size=0x14) addr:0x02022a80
_ZN6status16DQ4HaveEquipmentD1Ev kind:function(thumb,size=0xc) addr:0x02022a94
_ZN6status16DQ4HaveEquipment7beSpellE8ItemTypei kind:function(thumb,size=0x26) addr:0x02022aa0
func_02022ac8 kind:function(thumb,size=0x18) addr:0x02022ac8
func_02022ae0 kind:function(thumb,size=0x2) addr:0x02022ae0
_ZN6status12BattleResult10initializeEv kind:function(thumb,size=0xa4) addr:0x02022ae4
_ZN6status12BattleResult15setMonsterCountEjt kind:function(thumb,size=0x8) addr:0x02022b88
_ZN6status12BattleResult15addMonsterCountEj kind:function(thumb,size=0x24) addr:0x02022b90
_ZN6status12BattleResult15getMonsterCountEj kind:function(thumb,size=0x8) addr:0x02022bb4
_ZN6status12BattleResult9getMaxExpEj kind:function(thumb,size=0x20) addr:0x02022bbc
_ZN6status12BattleResult10getMaxGoldEj kind:function(thumb,size=0x20) addr:0x02022bdc
_ZN6status12BattleResult12setItemCountEjt kind:function(thumb,size=0xa) addr:0x02022bfc
_ZN6status12BattleResult12addItemCountEj kind:function(thumb,size=0x24) addr:0x02022c08
_ZN6status12BattleResult12getItemCountEj kind:function(thumb,size=0xa) addr:0x02022c2c
_ZN6status12BattleResult12getItemIndexEji kind:function(thumb,size=0x3c) addr:0x02022c38
_ZN6status12BattleResult8setLevelEjt kind:function(thumb,size=0xa) addr:0x02022c74
_ZN6status12BattleResult14regenesisLevelEjh kind:function(thumb,size=0x20) addr:0x02022c80
_ZN6status12BattleResult8getLevelEj kind:function(thumb,size=0xa) addr:0x02022ca0
_ZN6status12BattleResult11getExpTotalEj kind:function(thumb,size=0x14) addr:0x02022cac
_ZN6status12BattleResult12getGoldTotalEj kind:function(thumb,size=0x14) addr:0x02022cc0
_ZN6status12BattleResult10setEncountEjb kind:function(thumb,size=0x44) addr:0x02022cd4
_ZN6status12BattleResult9isEncountEj kind:function(thumb,size=0x24) addr:0x02022d18
_ZN6status12BattleResult15getEncountCountEv kind:function(thumb,size=0x40) addr:0x02022d3c
_ZN6status12BattleResult21getAllMonsterTotalExpEv kind:function(thumb,size=0x1c) addr:0x02022d7c
_ZN6status12BattleResult26setDisablePlayerDemolitionEb kind:function(thumb,size=0xc) addr:0x02022d98
_ZN6status12BattleResult25isDisablePlayerDemolitionEv kind:function(thumb,size=0xc) addr:0x02022da4
func_02022db0 kind:function(thumb,size=0x2) addr:0x02022db0
func_02022db4 kind:function(thumb,size=0x2) addr:0x02022db4
_ZN6status13BattleHistory10initializeEv kind:function(thumb,size=0x44) addr:0x02022db8
_ZN6status13BattleHistory16setAdventureTimeEj kind:function(thumb,size=0xa) addr:0x02022dfc
_ZN6status13BattleHistory22regenesisAdventureTimeEv kind:function(thumb,size=0x34) addr:0x02022e08
_ZN6status13BattleHistory16getAdventureTimeEv kind:function(thumb,size=0xa) addr:0x02022e3c
_ZN6status13BattleHistory14getBattleCountEv kind:function(thumb,size=0xa) addr:0x02022e48
_ZN6status13BattleHistory21regenesisMonsterCountEv kind:function(thumb,size=0x40) addr:0x02022e54
_ZN6status13BattleHistory15getMonsterCountEv kind:function(thumb,size=0xa) addr:0x02022e94
_ZN6status13BattleHistory18regenesisTotalGoldEj kind:function(thumb,size=0x40) addr:0x02022ea0
_ZN6status13BattleHistory12getTotalGoldEv kind:function(thumb,size=0xa) addr:0x02022ee0
_ZN6status13BattleHistory21regenesisVictoryCountEv kind:function(thumb,size=0x40) addr:0x02022eec
_ZN6status13BattleHistory15getVictoryCountEv kind:function(thumb,size=0xa) addr:0x02022f2c
_ZN6status13BattleHistory15setWipeoutCountEj kind:function(thumb,size=0xa) addr:0x02022f38
_ZN6status13BattleHistory15getWipeoutCountEv kind:function(thumb,size=0xa) addr:0x02022f44
_ZN6status13BattleHistory14setEscapeCountEj kind:function(thumb,size=0xa) addr:0x02022f50
_ZN6status13BattleHistory14getEscapeCountEv kind:function(thumb,size=0xa) addr:0x02022f5c
_ZN6status13BattleHistory18regenesisMaxDamageEt kind:function(thumb,size=0x4c) addr:0x02022f68
_ZN6status13BattleHistory12getMaxDamageEv kind:function(thumb,size=0xc) addr:0x02022fb4
_ZN6status13BattleHistory18regenesisHeroLevelEh kind:function(thumb,size=0x10) addr:0x02022fc0
_ZN6status13BattleHistory12getHeroLevelEv kind:function(thumb,size=0xa) addr:0x02022fd0
_ZN6status13BattleHistory19getRestMonsterCountEv kind:function(thumb,size=0x24) addr:0x02022fdc
_ZN6status13BattleHistory8setTitleEt kind:function(thumb,size=0xc) addr:0x02023000
_ZN6status13BattleHistory8getTitleEv kind:function(thumb,size=0xc) addr:0x0202300c
_ZN6status13BattleHistory21setChapterBattleCountEj kind:function(thumb,size=0x4) addr:0x02023018
_ZN6status13BattleHistory27regenesisChapterBattleCountEv kind:function(thumb,size=0x3c) addr:0x0202301c
_ZN6status13BattleHistory21getChapterBattleCountEv kind:function(thumb,size=0x4) addr:0x02023058
_ZN6status13BattleHistory22setChapterWipeoutCountEj kind:function(thumb,size=0x4) addr:0x0202305c
_ZN6status13BattleHistory28regenesisChapterWipeoutCountEv kind:function(thumb,size=0x3c) addr:0x02023060
_ZN6status13BattleHistory22getChapterWipeoutCountEv kind:function(thumb,size=0x4) addr:0x0202309c
_ZN6status13BattleHistory21setChapterEscapeCountEj kind:function(thumb,size=0x4) addr:0x020230a0
_ZN6status13BattleHistory27regenesisChapterEscapeCountEv kind:function(thumb,size=0x50) addr:0x020230a4
_ZN6status13BattleHistory21getChapterEscapeCountEv kind:function(thumb,size=0x4) addr:0x020230f4
_ZN6status13BattleHistory11setSaveDataEPN7profile13PROFILE_PARTYEPNS1_15PROFILE_HISTORYE kind:function(thumb,size=0x68) addr:0x020230f8
_ZN6status13BattleHistory11setLoadDataEPN7profile13PROFILE_PARTYEPNS1_15PROFILE_HISTORYE kind:function(thumb,size=0x68) addr:0x02023160
func_020231c8 kind:function(thumb,size=0x3c) addr:0x020231c8
func_02023204 kind:function(thumb,size=0x2c) addr:0x02023204
func_02023230 kind:function(thumb,size=0x44) addr:0x02023230
func_02023274 kind:function(thumb,size=0xb0) addr:0x02023274
func_02023324 kind:function(thumb,size=0xc) addr:0x02023324
func_02023330 kind:function(thumb,size=0x6) addr:0x02023330
func_02023338 kind:function(thumb,size=0x4) addr:0x02023338
func_0202333c kind:function(thumb,size=0x6) addr:0x0202333c
func_02023344 kind:function(thumb,size=0x4) addr:0x02023344
func_02023348 kind:function(thumb,size=0x1c) addr:0x02023348
func_02023364 kind:function(thumb,size=0x38) addr:0x02023364
func_0202339c kind:function(thumb,size=0x30) addr:0x0202339c
func_020233cc kind:function(thumb,size=0x18) addr:0x020233cc
func_020233e4 kind:function(thumb,size=0xc) addr:0x020233e4
func_020233f0 kind:function(thumb,size=0x34) addr:0x020233f0
func_02023424 kind:function(thumb,size=0x44) addr:0x02023424
func_02023468 kind:function(thumb,size=0x3c) addr:0x02023468
func_020234a4 kind:function(thumb,size=0x20) addr:0x020234a4
func_020234c4 kind:function(thumb,size=0x3e) addr:0x020234c4
func_02023504 kind:function(thumb,size=0x14) addr:0x02023504
func_02023518 kind:function(arm,size=0xb8) addr:0x02023518
func_020235d0 kind:function(arm,size=0x94) addr:0x020235d0
func_02023664 kind:function(arm,size=0x24) addr:0x02023664
func_02023688 kind:function(arm,size=0x10) addr:0x02023688
func_02023698 kind:function(arm,size=0x10) addr:0x02023698
func_020236a8 kind:function(arm,size=0x10) addr:0x020236a8
func_020236b8 kind:function(arm,size=0x30) addr:0x020236b8
func_020236e8 kind:function(arm,size=0x24) addr:0x020236e8
func_0202370c kind:function(arm,size=0x30) addr:0x0202370c
func_0202373c kind:function(arm,size=0x10) addr:0x0202373c
func_0202374c kind:function(arm,size=0x10) addr:0x0202374c
func_0202375c kind:function(arm,size=0x10) addr:0x0202375c
func_0202376c kind:function(arm,size=0xc) addr:0x0202376c
func_02023778 kind:function(arm,size=0xc) addr:0x02023778
func_02023784 kind:function(thumb,size=0xa4) addr:0x02023784
func_02023828 kind:function(thumb,size=0x84) addr:0x02023828
func_020238ac kind:function(thumb,size=0x1c) addr:0x020238ac
func_020238c8 kind:function(thumb,size=0xa) addr:0x020238c8
func_020238d4 kind:function(thumb,size=0x14) addr:0x020238d4
func_020238e8 kind:function(thumb,size=0x2c) addr:0x020238e8
func_02023914 kind:function(thumb,size=0xa) addr:0x02023914
func_02023920 kind:function(thumb,size=0x14) addr:0x02023920
func_02023934 kind:function(thumb,size=0x48) addr:0x02023934
func_0202397c kind:function(thumb,size=0xa) addr:0x0202397c
func_02023988 kind:function(thumb,size=0x14) addr:0x02023988
func_0202399c kind:function(thumb,size=0x80) addr:0x0202399c
func_02023a1c kind:function(thumb,size=0xa) addr:0x02023a1c
func_02023a28 kind:function(thumb,size=0x14) addr:0x02023a28
func_02023a3c kind:function(thumb,size=0x50) addr:0x02023a3c
func_02023a8c kind:function(thumb,size=0x8) addr:0x02023a8c
func_02023a94 kind:function(thumb,size=0x2c) addr:0x02023a94
func_02023ac0 kind:function(thumb,size=0x98) addr:0x02023ac0
func_02023b58 kind:function(thumb,size=0x8) addr:0x02023b58
func_02023b60 kind:function(thumb,size=0x38) addr:0x02023b60
func_02023b98 kind:function(thumb,size=0x8c) addr:0x02023b98
func_02023c24 kind:function(thumb,size=0x7c) addr:0x02023c24
func_02023ca0 kind:function(thumb,size=0x68) addr:0x02023ca0
func_02023d08 kind:function(thumb,size=0x68) addr:0x02023d08
func_02023d70 kind:function(thumb,size=0x8c) addr:0x02023d70
func_02023dfc kind:function(thumb,size=0x18) addr:0x02023dfc
func_02023e14 kind:function(thumb,size=0x44) addr:0x02023e14
func_02023e58 kind:function(thumb,size=0x24) addr:0x02023e58
func_02023e7c kind:function(thumb,size=0x92) addr:0x02023e7c
func_02023f10 kind:function(thumb,size=0x18) addr:0x02023f10
func_02023f28 kind:function(thumb,size=0x1c) addr:0x02023f28
func_02023f44 kind:function(thumb,size=0x2c) addr:0x02023f44
func_02023f70 kind:function(thumb,size=0x4) addr:0x02023f70
func_02023f74 kind:function(thumb,size=0x274) addr:0x02023f74
func_020241e8 kind:function(thumb,size=0xcc) addr:0x020241e8
func_020242b4 kind:function(thumb,size=0x14) addr:0x020242b4
func_020242c8 kind:function(thumb,size=0x14) addr:0x020242c8
func_020242dc kind:function(thumb,size=0x28) addr:0x020242dc
func_02024304 kind:function(thumb,size=0x30) addr:0x02024304
func_02024334 kind:function(thumb,size=0x30) addr:0x02024334
func_02024364 kind:function(thumb,size=0xe) addr:0x02024364
func_02024374 kind:function(thumb,size=0x12) addr:0x02024374
func_02024388 kind:function(thumb,size=0x2c) addr:0x02024388
func_020243b4 kind:function(thumb,size=0x14) addr:0x020243b4
func_020243c8 kind:function(thumb,size=0x10) addr:0x020243c8
func_020243d8 kind:function(thumb,size=0x10) addr:0x020243d8
func_020243e8 kind:function(thumb,size=0x10) addr:0x020243e8
func_020243f8 kind:function(thumb,size=0x18) addr:0x020243f8
func_02024410 kind:function(thumb,size=0x14) addr:0x02024410
func_02024424 kind:function(thumb,size=0x10) addr:0x02024424
func_02024434 kind:function(thumb,size=0x90) addr:0x02024434
func_020244c4 kind:function(thumb,size=0xa0) addr:0x020244c4
func_02024564 kind:function(thumb,size=0x84) addr:0x02024564
func_020245e8 kind:function(thumb,size=0x68) addr:0x020245e8
func_02024650 kind:function(thumb,size=0x2c) addr:0x02024650
func_0202467c kind:function(thumb,size=0x38) addr:0x0202467c
func_020246b4 kind:function(thumb,size=0xa) addr:0x020246b4
func_020246c0 kind:function(thumb,size=0x10) addr:0x020246c0
func_020246d0 kind:function(thumb,size=0x1e) addr:0x020246d0
func_020246f0 kind:function(thumb,size=0x18c) addr:0x020246f0
func_0202487c kind:function(thumb,size=0x4) addr:0x0202487c
func_02024880 kind:function(thumb,size=0x94) addr:0x02024880
func_02024914 kind:function(thumb,size=0x18) addr:0x02024914
func_0202492c kind:function(thumb,size=0x9c) addr:0x0202492c
func_020249c8 kind:function(thumb,size=0x2c) addr:0x020249c8
func_020249f4 kind:function(thumb,size=0x40) addr:0x020249f4
func_02024a34 kind:function(thumb,size=0x58) addr:0x02024a34
func_02024a8c kind:function(thumb,size=0x14) addr:0x02024a8c
func_02024aa0 kind:function(thumb,size=0x10) addr:0x02024aa0
func_02024ab0 kind:function(thumb,size=0x1c) addr:0x02024ab0
func_02024acc kind:function(thumb,size=0x3c) addr:0x02024acc
func_02024b08 kind:function(thumb,size=0x3c) addr:0x02024b08
func_02024b44 kind:function(thumb,size=0x24) addr:0x02024b44
func_02024b68 kind:function(thumb,size=0x74) addr:0x02024b68
func_02024bdc kind:function(thumb,size=0xc) addr:0x02024bdc
func_02024be8 kind:function(thumb,size=0x88) addr:0x02024be8
func_02024c70 kind:function(thumb,size=0x20) addr:0x02024c70
func_02024c90 kind:function(thumb,size=0x10) addr:0x02024c90
func_02024ca0 kind:function(thumb,size=0xc) addr:0x02024ca0
func_02024cac kind:function(thumb,size=0x14) addr:0x02024cac
func_02024cc0 kind:function(thumb,size=0x8a) addr:0x02024cc0
func_02024d4c kind:function(thumb,size=0x1a) addr:0x02024d4c
func_02024d68 kind:function(thumb,size=0x42) addr:0x02024d68
func_02024dac kind:function(thumb,size=0x3e) addr:0x02024dac
func_02024dec kind:function(thumb,size=0x28) addr:0x02024dec
func_02024e14 kind:function(thumb,size=0x60) addr:0x02024e14
func_02024e74 kind:function(thumb,size=0x4) addr:0x02024e74
func_02024e78 kind:function(thumb,size=0x2) addr:0x02024e78
func_02024e7c kind:function(thumb,size=0x2) addr:0x02024e7c
func_02024e80 kind:function(thumb,size=0x10) addr:0x02024e80
func_02024e90 kind:function(thumb,size=0x10) addr:0x02024e90
func_02024ea0 kind:function(thumb,size=0x10) addr:0x02024ea0
func_02024eb0 kind:function(thumb,size=0x1c) addr:0x02024eb0
func_02024ecc kind:function(thumb,size=0x1c) addr:0x02024ecc
func_02024ee8 kind:function(thumb,size=0x28) addr:0x02024ee8
func_02024f10 kind:function(thumb,size=0x34) addr:0x02024f10
func_02024f44 kind:function(thumb,size=0x2e) addr:0x02024f44
func_02024f74 kind:function(thumb,size=0xc) addr:0x02024f74
func_02024f80 kind:function(thumb,size=0x50) addr:0x02024f80
func_02024fd0 kind:function(thumb,size=0x16) addr:0x02024fd0
func_02024fe8 kind:function(thumb,size=0x14) addr:0x02024fe8
func_02024ffc kind:function(thumb,size=0x10) addr:0x02024ffc
func_0202500c kind:function(thumb,size=0xc8) addr:0x0202500c
func_020250d4 kind:function(thumb,size=0x12) addr:0x020250d4
func_020250e8 kind:function(thumb,size=0x148) addr:0x020250e8
func_02025230 kind:function(thumb,size=0x12) addr:0x02025230
func_02025244 kind:function(thumb,size=0x32) addr:0x02025244
func_02025278 kind:function(thumb,size=0x12) addr:0x02025278
func_0202528c kind:function(thumb,size=0x218) addr:0x0202528c
func_020254a4 kind:function(thumb,size=0x14) addr:0x020254a4
func_020254b8 kind:function(thumb,size=0x5c) addr:0x020254b8
func_02025514 kind:function(thumb,size=0x48) addr:0x02025514
func_0202555c kind:function(thumb,size=0x4c) addr:0x0202555c
func_020255a8 kind:function(thumb,size=0xe) addr:0x020255a8
func_020255b8 kind:function(thumb,size=0xe) addr:0x020255b8
func_020255c8 kind:function(thumb,size=0x50) addr:0x020255c8
func_02025618 kind:function(arm,size=0x4) addr:0x02025618
func_0202561c kind:function(thumb,size=0x6c) addr:0x0202561c
func_02025688 kind:function(thumb,size=0x10) addr:0x02025688
func_02025698 kind:function(thumb,size=0x4c) addr:0x02025698
func_020256e4 kind:function(thumb,size=0x10) addr:0x020256e4
func_020256f4 kind:function(arm,size=0x4) addr:0x020256f4
func_020256f8 kind:function(arm,size=0x4) addr:0x020256f8
func_020256fc kind:function(arm,size=0x4) addr:0x020256fc
func_02025700 kind:function(arm,size=0x4) addr:0x02025700
func_02025704 kind:function(arm,size=0x4) addr:0x02025704
func_02025708 kind:function(arm,size=0x4) addr:0x02025708
func_0202570c kind:function(arm,size=0x4) addr:0x0202570c
func_02025710 kind:function(arm,size=0x4) addr:0x02025710
func_02025714 kind:function(arm,size=0x4) addr:0x02025714
func_02025718 kind:function(arm,size=0x4) addr:0x02025718
func_0202571c kind:function(arm,size=0x4) addr:0x0202571c
func_02025720 kind:function(thumb,size=0x2) addr:0x02025720
func_02025724 kind:function(thumb,size=0x2) addr:0x02025724
func_02025728 kind:function(thumb,size=0x2) addr:0x02025728
func_0202572c kind:function(thumb,size=0x2) addr:0x0202572c
func_02025730 kind:function(thumb,size=0x2) addr:0x02025730
func_02025734 kind:function(thumb,size=0x2) addr:0x02025734
func_02025738 kind:function(thumb,size=0x2) addr:0x02025738
func_0202573c kind:function(thumb,size=0x2) addr:0x0202573c
func_02025740 kind:function(thumb,size=0x2) addr:0x02025740
func_02025744 kind:function(thumb,size=0x2) addr:0x02025744
func_02025748 kind:function(thumb,size=0x2) addr:0x02025748
func_0202574c kind:function(thumb,size=0x2) addr:0x0202574c
func_02025750 kind:function(thumb,size=0x2) addr:0x02025750
func_02025754 kind:function(thumb,size=0x34) addr:0x02025754
func_02025788 kind:function(thumb,size=0x54) addr:0x02025788
func_020257dc kind:function(thumb,size=0x14) addr:0x020257dc
func_020257f0 kind:function(thumb,size=0x1ac) addr:0x020257f0
func_0202599c kind:function(thumb,size=0xc) addr:0x0202599c
func_020259a8 kind:function(thumb,size=0xc) addr:0x020259a8
func_020259b4 kind:function(thumb,size=0xc) addr:0x020259b4
func_020259c0 kind:function(thumb,size=0xc) addr:0x020259c0
func_020259cc kind:function(thumb,size=0xc) addr:0x020259cc
func_020259d8 kind:function(thumb,size=0x44) addr:0x020259d8
func_02025a1c kind:function(thumb,size=0x18) addr:0x02025a1c
func_02025a34 kind:function(thumb,size=0x2c) addr:0x02025a34
func_02025a60 kind:function(thumb,size=0x14) addr:0x02025a60
func_02025a74 kind:function(thumb,size=0x1e) addr:0x02025a74
func_02025a94 kind:function(thumb,size=0x26) addr:0x02025a94
func_02025abc kind:function(thumb,size=0x1e) addr:0x02025abc
func_02025adc kind:function(thumb,size=0xc) addr:0x02025adc
func_02025ae8 kind:function(thumb,size=0x20) addr:0x02025ae8
func_02025b08 kind:function(thumb,size=0xa) addr:0x02025b08
func_02025b14 kind:function(thumb,size=0x8) addr:0x02025b14
func_02025b1c kind:function(thumb,size=0x6) addr:0x02025b1c
func_02025b24 kind:function(thumb,size=0x4) addr:0x02025b24
func_02025b28 kind:function(thumb,size=0x38) addr:0x02025b28
func_02025b60 kind:function(thumb,size=0x8) addr:0x02025b60
func_02025b68 kind:function(thumb,size=0x10) addr:0x02025b68
func_02025b78 kind:function(thumb,size=0x14) addr:0x02025b78
func_02025b8c kind:function(thumb,size=0x18) addr:0x02025b8c
func_02025ba4 kind:function(thumb,size=0x14) addr:0x02025ba4
func_02025bb8 kind:function(thumb,size=0x14) addr:0x02025bb8
func_02025bcc kind:function(thumb,size=0x28) addr:0x02025bcc
func_02025bf4 kind:function(arm,size=0x4) addr:0x02025bf4
func_02025bf8 kind:function(thumb,size=0x1c) addr:0x02025bf8
func_02025c14 kind:function(thumb,size=0x238) addr:0x02025c14
func_02025e4c kind:function(thumb,size=0x2) addr:0x02025e4c
func_02025e50 kind:function(thumb,size=0x120) addr:0x02025e50
func_02025f70 kind:function(thumb,size=0xb0) addr:0x02025f70
func_02026020 kind:function(thumb,size=0x30) addr:0x02026020
func_02026050 kind:function(thumb,size=0xac) addr:0x02026050
func_020260fc kind:function(thumb,size=0x30) addr:0x020260fc
func_0202612c kind:function(thumb,size=0x30) addr:0x0202612c
func_0202615c kind:function(thumb,size=0x30) addr:0x0202615c
func_0202618c kind:function(thumb,size=0x30) addr:0x0202618c
func_020261bc kind:function(thumb,size=0x34) addr:0x020261bc
func_020261f0 kind:function(thumb,size=0x7c) addr:0x020261f0
func_0202626c kind:function(thumb,size=0x34) addr:0x0202626c
func_020262a0 kind:function(thumb,size=0x90) addr:0x020262a0
func_02026330 kind:function(thumb,size=0x50) addr:0x02026330
func_02026380 kind:function(thumb,size=0x48) addr:0x02026380
func_020263c8 kind:function(thumb,size=0x40) addr:0x020263c8
func_02026408 kind:function(thumb,size=0x40) addr:0x02026408
func_02026448 kind:function(thumb,size=0x44) addr:0x02026448
func_0202648c kind:function(thumb,size=0x44) addr:0x0202648c
func_020264d0 kind:function(thumb,size=0x64) addr:0x020264d0
func_02026534 kind:function(thumb,size=0x3c) addr:0x02026534
func_02026570 kind:function(thumb,size=0x68) addr:0x02026570
func_020265d8 kind:function(thumb,size=0x90) addr:0x020265d8
func_02026668 kind:function(thumb,size=0x38) addr:0x02026668
func_020266a0 kind:function(thumb,size=0x40) addr:0x020266a0
func_020266e0 kind:function(thumb,size=0x34) addr:0x020266e0
func_02026714 kind:function(thumb,size=0x4c) addr:0x02026714
func_02026760 kind:function(thumb,size=0x30) addr:0x02026760
func_02026790 kind:function(thumb,size=0x40) addr:0x02026790
func_020267d0 kind:function(arm,size=0x4) addr:0x020267d0
func_020267d4 kind:function(thumb,size=0x58) addr:0x020267d4
func_0202682c kind:function(thumb,size=0x18) addr:0x0202682c
func_02026844 kind:function(thumb,size=0x12) addr:0x02026844
func_02026858 kind:function(thumb,size=0xb0) addr:0x02026858
func_02026908 kind:function(thumb,size=0xc) addr:0x02026908
func_02026914 kind:function(thumb,size=0x10) addr:0x02026914
func_02026924 kind:function(thumb,size=0x6) addr:0x02026924
func_0202692c kind:function(thumb,size=0x2) addr:0x0202692c
func_02026930 kind:function(thumb,size=0x2) addr:0x02026930
func_02026934 kind:function(thumb,size=0x18) addr:0x02026934
func_0202694c kind:function(thumb,size=0x4c) addr:0x0202694c
func_02026998 kind:function(thumb,size=0x28) addr:0x02026998
func_020269c0 kind:function(thumb,size=0x24) addr:0x020269c0
func_020269e4 kind:function(thumb,size=0x8) addr:0x020269e4
func_020269ec kind:function(thumb,size=0x24) addr:0x020269ec
func_02026a10 kind:function(thumb,size=0x40) addr:0x02026a10
func_02026a50 kind:function(thumb,size=0xc) addr:0x02026a50
func_02026a5c kind:function(thumb,size=0xc) addr:0x02026a5c
func_02026a68 kind:function(thumb,size=0x170) addr:0x02026a68
func_02026bd8 kind:function(thumb,size=0x5c) addr:0x02026bd8
func_02026c34 kind:function(thumb,size=0x18) addr:0x02026c34
func_02026c4c kind:function(thumb,size=0x54) addr:0x02026c4c
func_02026ca0 kind:function(thumb,size=0xc) addr:0x02026ca0
func_02026cac kind:function(thumb,size=0xc) addr:0x02026cac
func_02026cb8 kind:function(thumb,size=0x8) addr:0x02026cb8
func_02026cc0 kind:function(thumb,size=0x8) addr:0x02026cc0
func_02026cc8 kind:function(thumb,size=0x8) addr:0x02026cc8
func_02026cd0 kind:function(thumb,size=0x8) addr:0x02026cd0
func_02026cd8 kind:function(thumb,size=0x60) addr:0x02026cd8
_ZN6status15CharacterStatusC2Ev kind:function(thumb,size=0x50) addr:0x02026d38
_ZN6status15CharacterStatusD2Ev kind:function(thumb,size=0x1c) addr:0x02026d88
_ZN6status15CharacterStatus14isActionEnableEv kind:function(thumb,size=0xc) addr:0x02026da4
_ZN6status15CharacterStatus5setupE13CharacterTypeii kind:function(thumb,size=0x40) addr:0x02026db0
_ZN6status15CharacterStatus17setMenuStatusFlagENS_14HaveStatusInfo10DiffStatusE kind:function(thumb,size=0x1a) addr:0x02026df0
_ZN6status15CharacterStatus16isMenuStatusFlagENS_14HaveStatusInfo10DiffStatusE kind:function(thumb,size=0x16) addr:0x02026e0c
_ZN6status15CharacterStatus19clearMenuStatusFlagEv kind:function(thumb,size=0xa) addr:0x02026e24
_ZN6status15CharacterStatus16setNoneAnimationEv kind:function(thumb,size=0x14) addr:0x02026e30
_ZN6status15CharacterStatus18setDamageAnimationEv kind:function(thumb,size=0xe) addr:0x02026e44
_ZN6status15CharacterStatus20clearDamageAnimationEv kind:function(thumb,size=0xe) addr:0x02026e54
_ZN6status15CharacterStatus17isDamageAnimationEv kind:function(thumb,size=0x10) addr:0x02026e64
_ZN6status15CharacterStatus21setAddDamageAnimationEv kind:function(thumb,size=0x10) addr:0x02026e74
_ZN6status15CharacterStatus17setDeathAnimationEv kind:function(thumb,size=0xe) addr:0x02026e84
_ZN6status15CharacterStatus19clearDeathAnimationEv kind:function(thumb,size=0xe) addr:0x02026e94
_ZN6status15CharacterStatus16isDeathAnimationEv kind:function(thumb,size=0x14) addr:0x02026ea4
_ZN6status15CharacterStatus21setDisappearAnimationEv kind:function(thumb,size=0xe) addr:0x02026eb8
_ZN6status15CharacterStatus23clearDisappearAnimationEv kind:function(thumb,size=0xe) addr:0x02026ec8
_ZN6status15CharacterStatus20isDisappearAnimationEv kind:function(thumb,size=0x14) addr:0x02026ed8
_ZN6status15CharacterStatus24setMultiDamageAnimation1Ev kind:function(thumb,size=0xe) addr:0x02026eec
_ZN6status15CharacterStatus26clearMultiDamageAnimation1Ev kind:function(thumb,size=0xe) addr:0x02026efc
_ZN6status15CharacterStatus23isMultiDamageAnimation1Ev kind:function(thumb,size=0x14) addr:0x02026f0c
_ZN6status15CharacterStatus24setMultiDamageAnimation2Ev kind:function(thumb,size=0xe) addr:0x02026f20
_ZN6status15CharacterStatus26clearMultiDamageAnimation2Ev kind:function(thumb,size=0xe) addr:0x02026f30
_ZN6status15CharacterStatus23isMultiDamageAnimation2Ev kind:function(thumb,size=0x14) addr:0x02026f40
_ZN6status15CharacterStatus23setMultiDamageAnimationEv kind:function(thumb,size=0xe) addr:0x02026f54
_ZN6status15CharacterStatus25clearMultiDamageAnimationEv kind:function(thumb,size=0xe) addr:0x02026f64
_ZN6status15CharacterStatus22isMultiDamageAnimationEv kind:function(thumb,size=0x14) addr:0x02026f74
_ZN6status15CharacterStatus26setMultiDamageAnimation2ndEv kind:function(thumb,size=0xe) addr:0x02026f88
_ZN6status15CharacterStatus25isMultiDamageAnimation2ndEv kind:function(thumb,size=0x14) addr:0x02026f98
_ZN6status15CharacterStatus18setEscapeAnimationEv kind:function(thumb,size=0xe) addr:0x02026fac
_ZN6status15CharacterStatus20clearEscapeAnimationEv kind:function(thumb,size=0xe) addr:0x02026fbc
_ZN6status15CharacterStatus17isEscapeAnimationEv kind:function(thumb,size=0x14) addr:0x02026fcc
_ZN6status15CharacterStatus19setRebirthAnimationEv kind:function(thumb,size=0x10) addr:0x02026fe0
_ZN6status15CharacterStatus21clearRebirthAnimationEv kind:function(thumb,size=0x14) addr:0x02026ff0
_ZN6status15CharacterStatus18isRebirthAnimationEv kind:function(thumb,size=0x16) addr:0x02027004
_ZN6status15CharacterStatus11printActionEv kind:function(arm,size=0x4) addr:0x0202701c
_ZN6status15CharacterStatus5printEv kind:function(arm,size=0x4) addr:0x02027020
func_02027024 kind:function(arm,size=0x10) addr:0x02027024
func_02027034 kind:function(arm,size=0x4) addr:0x02027034
func_02027038 kind:function(arm,size=0x4) addr:0x02027038
func_0202703c kind:function(arm,size=0x50) addr:0x0202703c
func_0202708c kind:function(arm,size=0x4) addr:0x0202708c
func_02027090 kind:function(arm,size=0x4) addr:0x02027090
func_02027094 kind:function(arm,size=0x68) addr:0x02027094
func_020270fc kind:function(arm,size=0x5c) addr:0x020270fc
func_02027158 kind:function(arm,size=0x8c) addr:0x02027158
func_020271e4 kind:function(arm,size=0x100) addr:0x020271e4
func_020272e4 kind:function(arm,size=0xc4) addr:0x020272e4
func_020273a8 kind:function(arm,size=0x7c) addr:0x020273a8
func_02027424 kind:function(arm,size=0x4) addr:0x02027424
func_02027428 kind:function(arm,size=0x4) addr:0x02027428
_ZN6status14UseActionParam5clearEv kind:function(thumb,size=0x7a) addr:0x0202742c
_ZN6status14UseActionParam12clearMessageEv kind:function(thumb,size=0x1a) addr:0x020274a8
func_020274c4 kind:function(arm,size=0xc04) addr:0x020274c4
func_020280c8 kind:function(arm,size=0x8c) addr:0x020280c8
func_02028154 kind:function(arm,size=0x12c) addr:0x02028154
func_02028280 kind:function(arm,size=0x68) addr:0x02028280
func_020282e8 kind:function(arm,size=0x174) addr:0x020282e8
func_0202845c kind:function(arm,size=0x38) addr:0x0202845c
func_02028494 kind:function(arm,size=0x48) addr:0x02028494
func_020284dc kind:function(arm,size=0xe4) addr:0x020284dc
func_020285c0 kind:function(arm,size=0xfc) addr:0x020285c0
func_020286bc kind:function(arm,size=0x20c) addr:0x020286bc
func_020288c8 kind:function(arm,size=0x7c) addr:0x020288c8
func_02028944 kind:function(arm,size=0x60) addr:0x02028944
func_020289a4 kind:function(arm,size=0xcc) addr:0x020289a4
func_02028a70 kind:function(arm,size=0x54) addr:0x02028a70
func_02028ac4 kind:function(arm,size=0x50) addr:0x02028ac4
func_02028b14 kind:function(arm,size=0x48) addr:0x02028b14
func_02028b5c kind:function(arm,size=0xb8) addr:0x02028b5c
func_02028c14 kind:function(arm,size=0x84) addr:0x02028c14
func_02028c98 kind:function(arm,size=0xa0) addr:0x02028c98
func_02028d38 kind:function(arm,size=0x114) addr:0x02028d38
func_02028e4c kind:function(arm,size=0x40) addr:0x02028e4c
func_02028e8c kind:function(arm,size=0x54) addr:0x02028e8c
func_02028ee0 kind:function(arm,size=0x104) addr:0x02028ee0
func_02028fe4 kind:function(arm,size=0xb0) addr:0x02028fe4
func_02029094 kind:function(arm,size=0x38) addr:0x02029094
func_020290cc kind:function(arm,size=0xa0) addr:0x020290cc
func_0202916c kind:function(arm,size=0x7c) addr:0x0202916c
func_020291e8 kind:function(arm,size=0x1c) addr:0x020291e8
func_02029204 kind:function(arm,size=0xb0) addr:0x02029204
func_020292b4 kind:function(arm,size=0x4) addr:0x020292b4
func_020292b8 kind:function(arm,size=0x4) addr:0x020292b8
func_020292bc kind:function(arm,size=0x4) addr:0x020292bc
func_020292c0 kind:function(arm,size=0x10) addr:0x020292c0
func_020292d0 kind:function(arm,size=0x4) addr:0x020292d0
func_020292d4 kind:function(arm,size=0x24) addr:0x020292d4
func_020292f8 kind:function(arm,size=0x50) addr:0x020292f8
func_02029348 kind:function(arm,size=0x4c) addr:0x02029348
func_02029394 kind:function(arm,size=0x58) addr:0x02029394
func_020293ec kind:function(arm,size=0x28) addr:0x020293ec
func_02029414 kind:function(arm,size=0x2c) addr:0x02029414
func_02029440 kind:function(arm,size=0x2c) addr:0x02029440
func_0202946c kind:function(arm,size=0x68) addr:0x0202946c
func_020294d4 kind:function(arm,size=0x1a0) addr:0x020294d4
func_02029674 kind:function(arm,size=0xc) addr:0x02029674
func_02029680 kind:function(arm,size=0x8) addr:0x02029680
func_02029688 kind:function(arm,size=0x28) addr:0x02029688
func_020296b0 kind:function(arm,size=0x34) addr:0x020296b0
func_020296e4 kind:function(arm,size=0x34) addr:0x020296e4
func_02029718 kind:function(arm,size=0x18) addr:0x02029718
func_02029730 kind:function(arm,size=0x8) addr:0x02029730
func_02029738 kind:function(arm,size=0x20) addr:0x02029738
func_02029758 kind:function(arm,size=0x14) addr:0x02029758
func_0202976c kind:function(arm,size=0x88) addr:0x0202976c
func_020297f4 kind:function(arm,size=0x13c) addr:0x020297f4
func_02029930 kind:function(arm,size=0xf0) addr:0x02029930
func_02029a20 kind:function(arm,size=0x8) addr:0x02029a20
func_02029a28 kind:function(arm,size=0x70) addr:0x02029a28
func_02029a98 kind:function(arm,size=0xb0) addr:0x02029a98
func_02029b48 kind:function(arm,size=0x8) addr:0x02029b48
func_02029b50 kind:function(arm,size=0xc) addr:0x02029b50
func_02029b5c kind:function(arm,size=0x10c) addr:0x02029b5c
func_02029c68 kind:function(arm,size=0xc4) addr:0x02029c68
func_02029d2c kind:function(arm,size=0x94) addr:0x02029d2c
func_02029dc0 kind:function(arm,size=0x2c) addr:0x02029dc0
func_02029dec kind:function(arm,size=0x2c) addr:0x02029dec
func_02029e18 kind:function(arm,size=0x2c) addr:0x02029e18
func_02029e44 kind:function(arm,size=0x70) addr:0x02029e44
func_02029eb4 kind:function(arm,size=0x64) addr:0x02029eb4
func_02029f18 kind:function(arm,size=0xe8) addr:0x02029f18
func_0202a000 kind:function(arm,size=0x8) addr:0x0202a000
func_0202a008 kind:function(arm,size=0x68) addr:0x0202a008
func_0202a070 kind:function(arm,size=0x1b0) addr:0x0202a070
func_0202a220 kind:function(arm,size=0x84) addr:0x0202a220
func_0202a2a4 kind:function(arm,size=0x4) addr:0x0202a2a4
func_0202a2a8 kind:function(arm,size=0x30) addr:0x0202a2a8
func_0202a2d8 kind:function(arm,size=0x14) addr:0x0202a2d8
func_0202a2ec kind:function(arm,size=0x4) addr:0x0202a2ec
func_0202a2f0 kind:function(arm,size=0x8) addr:0x0202a2f0
func_0202a2f8 kind:function(arm,size=0x8) addr:0x0202a2f8
func_0202a300 kind:function(arm,size=0x80) addr:0x0202a300
func_0202a380 kind:function(arm,size=0x12c) addr:0x0202a380
func_0202a4ac kind:function(arm,size=0x8) addr:0x0202a4ac
func_0202a4b4 kind:function(arm,size=0xac) addr:0x0202a4b4
func_0202a560 kind:function(arm,size=0x50) addr:0x0202a560
func_0202a5b0 kind:function(arm,size=0x48) addr:0x0202a5b0
func_0202a5f8 kind:function(arm,size=0xc) addr:0x0202a5f8
func_0202a604 kind:function(arm,size=0xec) addr:0x0202a604
func_0202a6f0 kind:function(arm,size=0x50) addr:0x0202a6f0
func_0202a740 kind:function(arm,size=0x98) addr:0x0202a740
func_0202a7d8 kind:function(arm,size=0x44) addr:0x0202a7d8
func_0202a81c kind:function(arm,size=0x44) addr:0x0202a81c
func_0202a860 kind:function(arm,size=0x18) addr:0x0202a860
func_0202a878 kind:function(arm,size=0x14) addr:0x0202a878
func_0202a88c kind:function(arm,size=0x28) addr:0x0202a88c
func_0202a8b4 kind:function(arm,size=0x24) addr:0x0202a8b4
func_0202a8d8 kind:function(arm,size=0x24) addr:0x0202a8d8
func_0202a8fc kind:function(arm,size=0x1d8) addr:0x0202a8fc
func_0202aad4 kind:function(arm,size=0x70) addr:0x0202aad4
func_0202ab44 kind:function(arm,size=0x10) addr:0x0202ab44
func_0202ab54 kind:function(arm,size=0x10) addr:0x0202ab54
func_0202ab64 kind:function(arm,size=0x40) addr:0x0202ab64
func_0202aba4 kind:function(arm,size=0x30) addr:0x0202aba4
func_0202abd4 kind:function(arm,size=0x10) addr:0x0202abd4
func_0202abe4 kind:function(arm,size=0xc) addr:0x0202abe4
func_0202abf0 kind:function(arm,size=0xc) addr:0x0202abf0
func_0202abfc kind:function(arm,size=0x10) addr:0x0202abfc
func_0202ac0c kind:function(arm,size=0xc) addr:0x0202ac0c
func_0202ac18 kind:function(arm,size=0x24) addr:0x0202ac18
func_0202ac3c kind:function(arm,size=0x4) addr:0x0202ac3c
func_0202ac40 kind:function(arm,size=0x4) addr:0x0202ac40
func_0202ac44 kind:function(arm,size=0x8) addr:0x0202ac44
func_0202ac4c kind:function(thumb,size=0xc) addr:0x0202ac4c
func_0202ac58 kind:function(thumb,size=0x2) addr:0x0202ac58
func_0202ac5c kind:function(thumb,size=0x3c) addr:0x0202ac5c
func_0202ac98 kind:function(thumb,size=0x40) addr:0x0202ac98
func_0202acd8 kind:function(thumb,size=0x2) addr:0x0202acd8
func_0202acdc kind:function(thumb,size=0x8) addr:0x0202acdc
func_0202ace4 kind:function(thumb,size=0x44) addr:0x0202ace4
func_0202ad28 kind:function(thumb,size=0x5c) addr:0x0202ad28
func_0202ad84 kind:function(arm,size=0x14) addr:0x0202ad84
func_0202ad98 kind:function(thumb,size=0x1c) addr:0x0202ad98
func_0202adb4 kind:function(thumb,size=0xe) addr:0x0202adb4
func_0202adc4 kind:function(thumb,size=0xa4) addr:0x0202adc4
func_0202ae68 kind:function(thumb,size=0x3c) addr:0x0202ae68
func_0202aea4 kind:function(thumb,size=0x20) addr:0x0202aea4
func_0202aec4 kind:function(thumb,size=0x90) addr:0x0202aec4
func_0202af54 kind:function(thumb,size=0x1a) addr:0x0202af54
func_0202af70 kind:function(thumb,size=0x5c) addr:0x0202af70
func_0202afcc kind:function(thumb,size=0x6c) addr:0x0202afcc
func_0202b038 kind:function(thumb,size=0x3c) addr:0x0202b038
func_0202b074 kind:function(thumb,size=0x3c) addr:0x0202b074
func_0202b0b0 kind:function(thumb,size=0x2) addr:0x0202b0b0
func_0202b0b4 kind:function(thumb,size=0x2) addr:0x0202b0b4
func_0202b0b8 kind:function(thumb,size=0x18c) addr:0x0202b0b8
func_0202b244 kind:function(thumb,size=0x230) addr:0x0202b244
func_0202b474 kind:function(thumb,size=0x24) addr:0x0202b474
func_0202b498 kind:function(thumb,size=0x78) addr:0x0202b498
func_0202b510 kind:function(thumb,size=0x40) addr:0x0202b510
func_0202b550 kind:function(thumb,size=0x134) addr:0x0202b550
func_0202b684 kind:function(thumb,size=0x54) addr:0x0202b684
func_0202b6d8 kind:function(thumb,size=0x17c) addr:0x0202b6d8
func_0202b854 kind:function(thumb,size=0xc) addr:0x0202b854
func_0202b860 kind:function(thumb,size=0x58) addr:0x0202b860
func_0202b8b8 kind:function(thumb,size=0x70) addr:0x0202b8b8
func_0202b928 kind:function(thumb,size=0x68) addr:0x0202b928
func_0202b990 kind:function(thumb,size=0x18) addr:0x0202b990
func_0202b9a8 kind:function(thumb,size=0x50) addr:0x0202b9a8
func_0202b9f8 kind:function(thumb,size=0x44) addr:0x0202b9f8
func_0202ba3c kind:function(thumb,size=0x60) addr:0x0202ba3c
func_0202ba9c kind:function(thumb,size=0x68) addr:0x0202ba9c
func_0202bb04 kind:function(thumb,size=0x54) addr:0x0202bb04
func_0202bb58 kind:function(thumb,size=0x8) addr:0x0202bb58
func_0202bb60 kind:function(thumb,size=0x2c) addr:0x0202bb60
func_0202bb8c kind:function(thumb,size=0x54) addr:0x0202bb8c
func_0202bbe0 kind:function(thumb,size=0x30) addr:0x0202bbe0
func_0202bc10 kind:function(thumb,size=0xc0) addr:0x0202bc10
func_0202bcd0 kind:function(thumb,size=0x2f0) addr:0x0202bcd0
func_0202bfc0 kind:function(thumb,size=0x5c) addr:0x0202bfc0
func_0202c01c kind:function(thumb,size=0x24) addr:0x0202c01c
func_0202c040 kind:function(thumb,size=0x18) addr:0x0202c040
func_0202c058 kind:function(thumb,size=0xcc) addr:0x0202c058
func_0202c124 kind:function(thumb,size=0x28) addr:0x0202c124
func_0202c14c kind:function(thumb,size=0x2e) addr:0x0202c14c
func_0202c17c kind:function(thumb,size=0x38) addr:0x0202c17c
func_0202c1b4 kind:function(thumb,size=0x24) addr:0x0202c1b4
func_0202c1d8 kind:function(thumb,size=0x34) addr:0x0202c1d8
func_0202c20c kind:function(thumb,size=0x50) addr:0x0202c20c
func_0202c25c kind:function(thumb,size=0x28) addr:0x0202c25c
func_0202c284 kind:function(thumb,size=0x7c) addr:0x0202c284
func_0202c300 kind:function(thumb,size=0x30) addr:0x0202c300
func_0202c330 kind:function(thumb,size=0x20) addr:0x0202c330
func_0202c350 kind:function(thumb,size=0x2c) addr:0x0202c350
func_0202c37c kind:function(thumb,size=0x34) addr:0x0202c37c
func_0202c3b0 kind:function(thumb,size=0x1c) addr:0x0202c3b0
_ZN6status11StoryStatus8setTarotEi kind:function(thumb,size=0x16) addr:0x0202c3cc
_ZN6status11StoryStatus7isTarotEv kind:function(thumb,size=0xc) addr:0x0202c3e4
_ZN6status11StoryStatus10setUseBankEb kind:function(thumb,size=0x16) addr:0x0202c3f0
_ZN6status11StoryStatus9isUseBankEv kind:function(thumb,size=0x10) addr:0x0202c408
_ZN6status11StoryStatus15setCompleteCoinEb kind:function(thumb,size=0x16) addr:0x0202c418
_ZN6status11StoryStatus14isCompleteCoinEv kind:function(thumb,size=0x10) addr:0x0202c430
_ZN6status11StoryStatus10setChapterEi kind:function(thumb,size=0x1c) addr:0x0202c440
_ZN6status11StoryStatus11storeFukuroEPNS_12HaveItemSackE kind:function(thumb,size=0x82) addr:0x0202c45c
_ZN6status11StoryStatus13restoreFukuroEiPNS_12HaveItemSackE kind:function(thumb,size=0x4a) addr:0x0202c4e0
_ZN6status11StoryStatus9storeGoldEj kind:function(thumb,size=0x14) addr:0x0202c52c
_ZN6status11StoryStatus15storeCasinoCoinEj kind:function(thumb,size=0x14) addr:0x0202c540
_ZN6status11StoryStatus17restoreCasinoCoinEij kind:function(thumb,size=0x14) addr:0x0202c554
_ZN6status11StoryStatus20getChapterCasinoCoinEi kind:function(thumb,size=0x10) addr:0x0202c568
_ZN6status11StoryStatus5storeEv kind:function(thumb,size=0x44) addr:0x0202c578
_ZN6status11StoryStatus11restoreSackEi kind:function(thumb,size=0x10) addr:0x0202c5bc
_ZN6status11StoryStatus11restoreCoinEi kind:function(thumb,size=0x2c) addr:0x0202c5cc
_ZN6status11StoryStatus11setHeroNameEPc kind:function(thumb,size=0x1c) addr:0x0202c5f8
_ZN6status11StoryStatus22setEndorEventItemCountENS0_12BONMOL_EVENTEi kind:function(thumb,size=0x18) addr:0x0202c614
_ZN6status11StoryStatus22addEndorEventItemCountENS0_12BONMOL_EVENTEc kind:function(thumb,size=0x1c) addr:0x0202c62c
_ZN6status11StoryStatus22getEndorEventItemCountENS0_12BONMOL_EVENTE kind:function(thumb,size=0x10) addr:0x0202c648
_ZN6status11StoryStatus21setGiveEventItemCountENS0_12BONMOL_EVENTEi kind:function(thumb,size=0x10) addr:0x0202c658
_ZN6status11StoryStatus21getGiveEventItemCountENS0_12BONMOL_EVENTE kind:function(thumb,size=0x10) addr:0x0202c668
func_0202c678 kind:function(thumb,size=0x54) addr:0x0202c678
func_0202c6cc kind:function(thumb,size=0x8) addr:0x0202c6cc
func_0202c6d4 kind:function(thumb,size=0x14) addr:0x0202c6d4
func_0202c6e8 kind:function(thumb,size=0x2d0) addr:0x0202c6e8
func_0202c9b8 kind:function(thumb,size=0x50) addr:0x0202c9b8
func_0202ca08 kind:function(thumb,size=0x31c) addr:0x0202ca08
func_0202cd24 kind:function(thumb,size=0xe) addr:0x0202cd24
func_0202cd34 kind:function(thumb,size=0xd8) addr:0x0202cd34
func_0202ce0c kind:function(thumb,size=0x4c) addr:0x0202ce0c
func_0202ce58 kind:function(thumb,size=0x1a8) addr:0x0202ce58
func_0202d000 kind:function(thumb,size=0x12) addr:0x0202d000
func_0202d014 kind:function(thumb,size=0x2) addr:0x0202d014
_ZN6status17BaseActionMessageC2Ev kind:function(thumb,size=0x2) addr:0x0202d018
_ZN6status17BaseActionMessageD1Ev kind:function(thumb,size=0x2) addr:0x0202d01c
_ZN6status17BaseActionMessage10initializeEv kind:function(thumb,size=0x18) addr:0x0202d020
_ZN6status17BaseActionMessage5setupEPNS_14UseActionParamE kind:function(thumb,size=0x14) addr:0x0202d038
_ZN6status17BaseActionMessage14setExecMessageEPNS_16UseActionMessageE kind:function(thumb,size=0x2e) addr:0x0202d04c
_ZN6status17BaseActionMessage17setExecMessageAddEiPNS_16UseActionMessageE kind:function(thumb,size=0x14) addr:0x0202d07c
_ZN6status17BaseActionMessage16setResultMessageEPNS_15CharacterStatusEPNS_16UseActionMessageE kind:function(thumb,size=0xc0) addr:0x0202d090
_ZN6status17BaseActionMessage14setExecMessageEPNS_16UseActionMessageEiiii kind:function(thumb,size=0x1e) addr:0x0202d150
_ZN6status17BaseActionMessage16setResultMessageEPNS_16UseActionMessageEii kind:function(thumb,size=0x6) addr:0x0202d170
_ZN6status17BaseActionMessage13setAddMessageEPNS_16UseActionMessageEii kind:function(thumb,size=0xa) addr:0x0202d178
_ZN6status17BaseActionMessage21setMessageNotEnoughMpEPNS_16UseActionMessageE kind:function(thumb,size=0x3c) addr:0x0202d184
_ZN6status17BaseActionMessage14getExecMessageEi kind:function(thumb,size=0x2c) addr:0x0202d1c0
_ZN6status17BaseActionMessage16getResultMessageEv kind:function(thumb,size=0x20) addr:0x0202d1ec
_ZN6status17BaseActionMessage23getResultSuccessMessageEv kind:function(thumb,size=0x40) addr:0x0202d20c
_ZN6status17BaseActionMessage22getResultFailedMessageEv kind:function(thumb,size=0x3c) addr:0x0202d24c
_ZN6status17BaseActionMessage15setSplitMessageEPNS_15CharacterStatusES2_PNS_16UseActionMessageEi kind:function(thumb,size=0x54) addr:0x0202d288
_ZN6status17BaseActionMessage15setSplitMessageEPNS_15CharacterStatusES2_i kind:function(thumb,size=0x240) addr:0x0202d2dc
_ZN6status17BaseActionMessage19getMessagePlayerOneEPNS_15CharacterStatusEi kind:function(thumb,size=0x54) addr:0x0202d51c
_ZN6status17BaseActionMessage20getMessagePlayerManyEPNS_15CharacterStatusEi kind:function(thumb,size=0x54) addr:0x0202d570
_ZN6status17BaseActionMessage19getMessageMonster1GEPNS_15CharacterStatusEi kind:function(thumb,size=0x40) addr:0x0202d5c4
_ZN6status17BaseActionMessage19getMessageMonster2GEPNS_15CharacterStatusEi kind:function(thumb,size=0x40) addr:0x0202d604
_ZN6status17BaseActionMessage18getMessageMonsterDEPNS_15CharacterStatusEi kind:function(thumb,size=0x40) addr:0x0202d644
_ZN6status17BaseActionMessage30getMessageTargetNoSleepNoSpazzEPNS_15CharacterStatusEi kind:function(thumb,size=0x50) addr:0x0202d684
_ZN6status17BaseActionMessage26getMessageTargetSleepSpazzEPNS_15CharacterStatusEi kind:function(thumb,size=0x4c) addr:0x0202d6d4
_ZN6status17BaseActionMessage21getMessageTargetAliveEPNS_15CharacterStatusEi kind:function(thumb,size=0x34) addr:0x0202d720
_ZN6status17BaseActionMessage20getMessageTargetDeadEPNS_15CharacterStatusEi kind:function(thumb,size=0x34) addr:0x0202d754
_ZN6status17BaseActionMessage23getMessageTargetAstoronEPNS_15CharacterStatusEi kind:function(thumb,size=0x38) addr:0x0202d788
_ZN6status17BaseActionMessage25getMessageTargetNoMosyasuEPNS_15CharacterStatusEi kind:function(thumb,size=0x38) addr:0x0202d7c0
_ZN6status17BaseActionMessage29getMessageTargetNoSplitNoJoukEPNS_15CharacterStatusEi kind:function(thumb,size=0x48) addr:0x0202d7f8
_ZN6status17BaseActionMessage21getMessageTargetSplitEPNS_15CharacterStatusEi kind:function(thumb,size=0x3c) addr:0x0202d840
_ZN6status17BaseActionMessage20getMessageTargetJoukEPNS_15CharacterStatusEi kind:function(thumb,size=0x3c) addr:0x0202d87c
_ZN6status17BaseActionMessage25getMessageWeaponEquipmentEPNS_15CharacterStatusEi kind:function(thumb,size=0x44) addr:0x0202d8b8
_ZN6status17BaseActionMessage27getMessageNoWeaponEquipmentEPNS_15CharacterStatusEi kind:function(thumb,size=0x44) addr:0x0202d8fc
_ZN6status17BaseActionMessage19getMessageActorMaleEPNS_15CharacterStatusEi kind:function(thumb,size=0x30) addr:0x0202d940
_ZN6status17BaseActionMessage21getMessageActorFemaleEPNS_15CharacterStatusEi kind:function(thumb,size=0x30) addr:0x0202d970
_ZN6status17BaseActionMessage15getMessageNoUseEPNS_15CharacterStatusEi kind:function(thumb,size=0xb0) addr:0x0202d9a0
_ZN6status17BaseActionMessage17getMessageRulaOffEi kind:function(thumb,size=0x8c) addr:0x0202da50
_ZN6status17BaseActionMessage21getMessageRiremitoOffEi kind:function(thumb,size=0x44) addr:0x0202dadc
_ZN6status17BaseActionMessage22getMessageVainTimeZoneEi kind:function(thumb,size=0x6c) addr:0x0202db20
_ZN6status17BaseActionMessage19getMessageItemInBoxEi kind:function(thumb,size=0x64) addr:0x0202db8c
_ZN6status17BaseActionMessage22getMessageMonsterInBoxEi kind:function(thumb,size=0x64) addr:0x0202dbf0
_ZN6status17BaseActionMessage19getMessageGoldInBoxEi kind:function(thumb,size=0x64) addr:0x0202dc54
_ZN6status17BaseActionMessage19getMessageZeroInBoxEi kind:function(thumb,size=0x64) addr:0x0202dcb8
_ZN6status17BaseActionMessage19getMessageItemInPotEi kind:function(thumb,size=0x64) addr:0x0202dd1c
_ZN6status17BaseActionMessage22getMessageMonsterInPotEi kind:function(thumb,size=0x64) addr:0x0202dd80
_ZN6status17BaseActionMessage19getMessageGoldInPotEi kind:function(thumb,size=0x64) addr:0x0202dde4
_ZN6status17BaseActionMessage19getMessageZeroInPotEi kind:function(thumb,size=0x64) addr:0x0202de48
_ZN6status17BaseActionMessage18getMessageNoTargetEi kind:function(thumb,size=0x6c) addr:0x0202deac
_ZN6status17BaseActionMessage19getMessageNorthEastEi kind:function(thumb,size=0x58) addr:0x0202df18
_ZN6status17BaseActionMessage19getMessageSouthEastEi kind:function(thumb,size=0x58) addr:0x0202df70
_ZN6status17BaseActionMessage19getMessageNorthWestEi kind:function(thumb,size=0x58) addr:0x0202dfc8
_ZN6status17BaseActionMessage19getMessageSouthWestEi kind:function(thumb,size=0x58) addr:0x0202e020
_ZN6status17BaseActionMessage14getMessageZeroEi kind:function(thumb,size=0x4c) addr:0x0202e078
func_0202e0c4 kind:function(thumb,size=0x10) addr:0x0202e0c4
func_0202e0d4 kind:function(thumb,size=0x20) addr:0x0202e0d4
func_0202e0f4 kind:function(thumb,size=0x14c) addr:0x0202e0f4
func_0202e240 kind:function(thumb,size=0x7c) addr:0x0202e240
func_0202e2bc kind:function(thumb,size=0x4c) addr:0x0202e2bc
func_0202e308 kind:function(thumb,size=0x5e) addr:0x0202e308
func_0202e368 kind:function(thumb,size=0xa4) addr:0x0202e368
func_0202e40c kind:function(thumb,size=0x25c) addr:0x0202e40c
func_0202e668 kind:function(thumb,size=0x54) addr:0x0202e668
func_0202e6bc kind:function(thumb,size=0x44) addr:0x0202e6bc
func_0202e700 kind:function(thumb,size=0x30) addr:0x0202e700
func_0202e730 kind:function(thumb,size=0x30) addr:0x0202e730
func_0202e760 kind:function(thumb,size=0x7c) addr:0x0202e760
func_0202e7dc kind:function(thumb,size=0x30) addr:0x0202e7dc
func_0202e80c kind:function(thumb,size=0x38) addr:0x0202e80c
func_0202e844 kind:function(thumb,size=0x74) addr:0x0202e844
func_0202e8b8 kind:function(thumb,size=0xc) addr:0x0202e8b8
func_0202e8c4 kind:function(thumb,size=0x1d0) addr:0x0202e8c4
func_0202ea94 kind:function(thumb,size=0x6c) addr:0x0202ea94
func_0202eb00 kind:function(thumb,size=0x60) addr:0x0202eb00
func_0202eb60 kind:function(thumb,size=0x54) addr:0x0202eb60
func_0202ebb4 kind:function(thumb,size=0x74) addr:0x0202ebb4
func_0202ec28 kind:function(thumb,size=0x30) addr:0x0202ec28
func_0202ec58 kind:function(thumb,size=0x30) addr:0x0202ec58
func_0202ec88 kind:function(thumb,size=0x30) addr:0x0202ec88
func_0202ecb8 kind:function(thumb,size=0x6c) addr:0x0202ecb8
func_0202ed24 kind:function(thumb,size=0x24) addr:0x0202ed24
func_0202ed48 kind:function(thumb,size=0x24) addr:0x0202ed48
func_0202ed6c kind:function(thumb,size=0x24c) addr:0x0202ed6c
func_0202efb8 kind:function(thumb,size=0xf08) addr:0x0202efb8
func_0202fec0 kind:function(thumb,size=0x84) addr:0x0202fec0
func_0202ff44 kind:function(thumb,size=0x20) addr:0x0202ff44
func_0202ff64 kind:function(thumb,size=0x18) addr:0x0202ff64
func_0202ff7c kind:function(thumb,size=0x40) addr:0x0202ff7c
func_0202ffbc kind:function(thumb,size=0x2ac) addr:0x0202ffbc
func_02030268 kind:function(thumb,size=0xe) addr:0x02030268
func_02030278 kind:function(thumb,size=0x28) addr:0x02030278
func_020302a0 kind:function(thumb,size=0x40) addr:0x020302a0
func_020302e0 kind:function(thumb,size=0x78) addr:0x020302e0
func_02030358 kind:function(thumb,size=0x218) addr:0x02030358
func_02030570 kind:function(thumb,size=0xe) addr:0x02030570
func_02030580 kind:function(thumb,size=0x28) addr:0x02030580
func_020305a8 kind:function(thumb,size=0x28) addr:0x020305a8
func_020305d0 kind:function(thumb,size=0x28) addr:0x020305d0
func_020305f8 kind:function(thumb,size=0x28) addr:0x020305f8
func_02030620 kind:function(thumb,size=0x150) addr:0x02030620
func_02030770 kind:function(thumb,size=0x28) addr:0x02030770
func_02030798 kind:function(thumb,size=0xac) addr:0x02030798
func_02030844 kind:function(thumb,size=0x24) addr:0x02030844
func_02030868 kind:function(thumb,size=0x24) addr:0x02030868
func_0203088c kind:function(thumb,size=0x3c) addr:0x0203088c
func_020308c8 kind:function(thumb,size=0x28) addr:0x020308c8
func_020308f0 kind:function(thumb,size=0x28) addr:0x020308f0
func_02030918 kind:function(thumb,size=0x24) addr:0x02030918
func_0203093c kind:function(thumb,size=0xc) addr:0x0203093c
func_02030948 kind:function(thumb,size=0xc) addr:0x02030948
func_02030954 kind:function(thumb,size=0x24) addr:0x02030954
func_02030978 kind:function(thumb,size=0x6c) addr:0x02030978
func_020309e4 kind:function(thumb,size=0x5c) addr:0x020309e4
func_02030a40 kind:function(thumb,size=0x68) addr:0x02030a40
func_02030aa8 kind:function(thumb,size=0x8) addr:0x02030aa8
func_02030ab0 kind:function(thumb,size=0x28) addr:0x02030ab0
func_02030ad8 kind:function(thumb,size=0x70) addr:0x02030ad8
func_02030b48 kind:function(thumb,size=0x28) addr:0x02030b48
func_02030b70 kind:function(thumb,size=0x140) addr:0x02030b70
func_02030cb0 kind:function(arm,size=0x8c) addr:0x02030cb0
func_02030d3c kind:function(arm,size=0x44) addr:0x02030d3c
func_02030d80 kind:function(arm,size=0x10) addr:0x02030d80
func_02030d90 kind:function(arm,size=0x10) addr:0x02030d90
func_02030da0 kind:function(arm,size=0x4) addr:0x02030da0
func_02030da4 kind:function(arm,size=0x4) addr:0x02030da4
func_02030da8 kind:function(arm,size=0x50) addr:0x02030da8
func_02030df8 kind:function(arm,size=0x54) addr:0x02030df8
func_02030e4c kind:function(arm,size=0x64) addr:0x02030e4c
func_02030eb0 kind:function(arm,size=0x40) addr:0x02030eb0
func_02030ef0 kind:function(arm,size=0x34) addr:0x02030ef0
func_02030f24 kind:function(thumb,size=0x2) addr:0x02030f24
func_02030f28 kind:function(thumb,size=0x28) addr:0x02030f28
func_02030f50 kind:function(thumb,size=0x6) addr:0x02030f50
func_02030f58 kind:function(thumb,size=0x2) addr:0x02030f58
func_02030f5c kind:function(thumb,size=0x2) addr:0x02030f5c
func_02030f60 kind:function(thumb,size=0xc) addr:0x02030f60
func_02030f6c kind:function(arm,size=0x10) addr:0x02030f6c
func_02030f7c kind:function(arm,size=0x4) addr:0x02030f7c
func_02030f80 kind:function(arm,size=0x4) addr:0x02030f80
func_02030f84 kind:function(arm,size=0x4) addr:0x02030f84
func_02030f88 kind:function(arm,size=0x14) addr:0x02030f88
func_02030f9c kind:function(arm,size=0xc) addr:0x02030f9c
func_02030fa8 kind:function(arm,size=0x20) addr:0x02030fa8
func_02030fc8 kind:function(arm,size=0x4) addr:0x02030fc8
func_02030fcc kind:function(arm,size=0x14) addr:0x02030fcc
func_02030fe0 kind:function(arm,size=0x30) addr:0x02030fe0
func_02031010 kind:function(arm,size=0x1c) addr:0x02031010
func_0203102c kind:function(arm,size=0x10) addr:0x0203102c
func_0203103c kind:function(arm,size=0x34) addr:0x0203103c
func_02031070 kind:function(arm,size=0x10) addr:0x02031070
func_02031080 kind:function(arm,size=0x50) addr:0x02031080
func_020310d0 kind:function(arm,size=0x24) addr:0x020310d0
func_020310f4 kind:function(arm,size=0x60) addr:0x020310f4
func_02031154 kind:function(arm,size=0xc) addr:0x02031154
func_02031160 kind:function(arm,size=0x68) addr:0x02031160
func_020311c8 kind:function(arm,size=0xc) addr:0x020311c8
func_020311d4 kind:function(arm,size=0x1c) addr:0x020311d4
func_020311f0 kind:function(arm,size=0x3c) addr:0x020311f0
func_0203122c kind:function(arm,size=0x4c) addr:0x0203122c
func_02031278 kind:function(arm,size=0x70) addr:0x02031278
func_020312e8 kind:function(arm,size=0x54) addr:0x020312e8
func_0203133c kind:function(arm,size=0x90) addr:0x0203133c
func_020313cc kind:function(arm,size=0xcc) addr:0x020313cc
func_02031498 kind:function(arm,size=0x74) addr:0x02031498
func_0203150c kind:function(arm,size=0x74) addr:0x0203150c
func_02031580 kind:function(arm,size=0x7c) addr:0x02031580
func_020315fc kind:function(arm,size=0x68) addr:0x020315fc
func_02031664 kind:function(arm,size=0x48) addr:0x02031664
func_020316ac kind:function(arm,size=0x48) addr:0x020316ac
func_020316f4 kind:function(arm,size=0xb0) addr:0x020316f4
func_020317a4 kind:function(arm,size=0x138) addr:0x020317a4
func_020318dc kind:function(arm,size=0x2c) addr:0x020318dc
func_02031908 kind:function(arm,size=0xd0) addr:0x02031908
func_020319d8 kind:function(arm,size=0x84) addr:0x020319d8
func_02031a5c kind:function(arm,size=0xa8) addr:0x02031a5c
func_02031b04 kind:function(arm,size=0xd4) addr:0x02031b04
func_02031bd8 kind:function(arm,size=0xb8) addr:0x02031bd8
func_02031c90 kind:function(arm,size=0x48) addr:0x02031c90
func_02031cd8 kind:function(arm,size=0x2c) addr:0x02031cd8
func_02031d04 kind:function(arm,size=0x68) addr:0x02031d04
func_02031d6c kind:function(arm,size=0x18) addr:0x02031d6c
func_02031d84 kind:function(arm,size=0x34) addr:0x02031d84
func_02031db8 kind:function(arm,size=0xcc) addr:0x02031db8
func_02031e84 kind:function(arm,size=0xc) addr:0x02031e84
func_02031e90 kind:function(arm,size=0x24) addr:0x02031e90
func_02031eb4 kind:function(arm,size=0x10c) addr:0x02031eb4
func_02031fc0 kind:function(arm,size=0x5c) addr:0x02031fc0
func_0203201c kind:function(arm,size=0x90) addr:0x0203201c
func_020320ac kind:function(arm,size=0x280) addr:0x020320ac
func_0203232c kind:function(arm,size=0x6c) addr:0x0203232c
func_02032398 kind:function(arm,size=0x8c) addr:0x02032398
func_02032424 kind:function(arm,size=0x28) addr:0x02032424
func_0203244c kind:function(arm,size=0x4c) addr:0x0203244c
func_02032498 kind:function(arm,size=0xf0) addr:0x02032498
_ZN3cmn15CommonPartyInfoC1Ev kind:function(arm,size=0xa4) addr:0x02032588
_ZN3cmn15CommonPartyInfo23getPositionArrayPointerEv kind:function(arm,size=0x8) addr:0x0203262c
_ZN3cmn15CommonPartyInfo24getDirectionArrayPointerEv kind:function(arm,size=0x8) addr:0x02032634
_ZN3cmn15CommonPartyInfo12setPartyInfoEPN3dss11Fx32Vector3Es kind:function(arm,size=0x18) addr:0x0203263c
_ZN3cmn15CommonPartyInfo12getPartyInfoEPN3dss11Fx32Vector3EPs kind:function(arm,size=0x24) addr:0x02032654
_ZN3cmn15CommonPartyInfo12setBashaInfoEPN3dss11Fx32Vector3ES3_ssiii kind:function(arm,size=0x4c) addr:0x02032678
_ZN3cmn15CommonPartyInfo12getBashaInfoEPN3dss11Fx32Vector3ES3_PsS4_PiS5_S5_ kind:function(arm,size=0x64) addr:0x020326c4
_ZN3cmn15CommonPartyInfo9setDirIdxEs kind:function(arm,size=0x8) addr:0x02032728
_ZN3cmn15CommonPartyInfo16setStartPositionEv kind:function(arm,size=0x10) addr:0x02032730
_ZN3cmn15CommonPartyInfo11setShipInfoEPcPN3dss11Fx32Vector3Es kind:function(arm,size=0x40) addr:0x02032740
_ZN3cmn15CommonPartyInfo14getShipMapNameEv kind:function(arm,size=0xc) addr:0x02032780
_ZN3cmn15CommonPartyInfo11getShipInfoEPN3dss11Fx32Vector3EPs kind:function(arm,size=0x2c) addr:0x0203278c
_ZN3cmn15CommonPartyInfo12setIkadaInfoEPcPN3dss11Fx32Vector3E kind:function(arm,size=0x30) addr:0x020327b8
_ZN3cmn15CommonPartyInfo15setIkadaMapNameEPc kind:function(arm,size=0x18) addr:0x020327e8
_ZN3cmn15CommonPartyInfo15getIkadaMapNameEv kind:function(arm,size=0x8) addr:0x02032800
_ZN3cmn15CommonPartyInfo11getIkadaPosEv kind:function(arm,size=0x3c) addr:0x02032808
_ZN3cmn15CommonPartyInfo21resetShipIkadaMapNameEv kind:function(arm,size=0x10) addr:0x02032844
_ZN3cmn15CommonPartyInfo15isBalloonEnableEv kind:function(arm,size=0x44) addr:0x02032854
_ZN3cmn15CommonPartyInfo12isShipEnableEv kind:function(arm,size=0x38) addr:0x02032898
_ZN3cmn15CommonPartyInfo27setBalloonFieldTypeByTownIdEi kind:function(arm,size=0x44) addr:0x020328d0
_ZN3cmn15CommonPartyInfo12callCarriageEv kind:function(arm,size=0x78) addr:0x02032914
_ZN3cmn15CommonPartyInfo12isBarronAreaEPN3dss11Fx32Vector3E kind:function(arm,size=0x64) addr:0x0203298c
_ZN3cmn15CommonPartyInfo12isUsedBarronEv kind:function(arm,size=0x8) addr:0x020329f0
_ZN3cmn15CommonPartyInfo11checkBallonEPN3dss11Fx32Vector3E kind:function(arm,size=0xcc) addr:0x020329f8
_ZN3cmn15CommonPartyInfo13setMenuActionENS_11MENU_ACTIONE kind:function(arm,size=0x90) addr:0x02032ac4
_ZN3cmn15CommonPartyInfo24setBalloonPosByExtraSaveEv kind:function(arm,size=0xf4) addr:0x02032b54
_ZN3cmn15CommonPartyInfo26resetBalloonPosByExtraSaveEv kind:function(arm,size=0xa4) addr:0x02032c48
func_02032cec kind:function(arm,size=0x6c) addr:0x02032cec
func_02032d58 kind:function(arm,size=0x5c) addr:0x02032d58
func_02032db4 kind:function(arm,size=0x134) addr:0x02032db4
func_02032ee8 kind:function(arm,size=0x3a0) addr:0x02032ee8
func_02033288 kind:function(arm,size=0x24) addr:0x02033288
func_020332ac kind:function(arm,size=0x20) addr:0x020332ac
func_020332cc kind:function(arm,size=0x54) addr:0x020332cc
func_02033320 kind:function(arm,size=0x4) addr:0x02033320
func_02033324 kind:function(arm,size=0x4) addr:0x02033324
func_02033328 kind:function(arm,size=0x14) addr:0x02033328
func_0203333c kind:function(arm,size=0x1c) addr:0x0203333c
func_02033358 kind:function(arm,size=0x18) addr:0x02033358
func_02033370 kind:function(arm,size=0x6c) addr:0x02033370
func_020333dc kind:function(arm,size=0x1c) addr:0x020333dc
func_020333f8 kind:function(arm,size=0x70) addr:0x020333f8
func_02033468 kind:function(arm,size=0x44) addr:0x02033468
func_020334ac kind:function(arm,size=0x70) addr:0x020334ac
func_0203351c kind:function(arm,size=0x68) addr:0x0203351c
func_02033584 kind:function(arm,size=0x18) addr:0x02033584
func_0203359c kind:function(arm,size=0x14) addr:0x0203359c
func_020335b0 kind:function(arm,size=0x3c) addr:0x020335b0
func_020335ec kind:function(arm,size=0x78) addr:0x020335ec
func_02033664 kind:function(arm,size=0x1c) addr:0x02033664
func_02033680 kind:function(arm,size=0x10) addr:0x02033680
_ZN6status16UseActionMessage5clearEv kind:function(thumb,size=0x46) addr:0x02033690
func_020336d8 kind:function(arm,size=0x28) addr:0x020336d8
func_02033700 kind:function(arm,size=0x28) addr:0x02033700
func_02033728 kind:function(arm,size=0x20) addr:0x02033728
func_02033748 kind:function(arm,size=0x20) addr:0x02033748
func_02033768 kind:function(arm,size=0x20) addr:0x02033768
func_02033788 kind:function(arm,size=0x2c) addr:0x02033788
func_020337b4 kind:function(arm,size=0x174) addr:0x020337b4
func_02033928 kind:function(arm,size=0x44) addr:0x02033928
func_0203396c kind:function(arm,size=0x1c4) addr:0x0203396c
func_02033b30 kind:function(arm,size=0x10c) addr:0x02033b30
func_02033c3c kind:function(arm,size=0x30) addr:0x02033c3c
func_02033c6c kind:function(arm,size=0x1c) addr:0x02033c6c
func_02033c88 kind:function(arm,size=0x4c) addr:0x02033c88
func_02033cd4 kind:function(arm,size=0x3c) addr:0x02033cd4
func_02033d10 kind:function(arm,size=0x4) addr:0x02033d10
func_02033d14 kind:function(thumb,size=0x51c) addr:0x02033d14
func_020343aa kind:function(thumb,size=0x8) addr:0x020343aa
func_020343b4 kind:function(thumb,size=0x2a0) addr:0x020343b4
.L_02034646 kind:label(thumb) addr:0x02034646
func_0203475c kind:function(arm,size=0x10) addr:0x0203475c
func_0203476c kind:function(arm,size=0x4) addr:0x0203476c
func_02034770 kind:function(arm,size=0x44) addr:0x02034770
func_020347b4 kind:function(arm,size=0x4) addr:0x020347b4
func_020347b8 kind:function(arm,size=0x88) addr:0x020347b8
func_02034840 kind:function(arm,size=0x50) addr:0x02034840
func_02034890 kind:function(arm,size=0x64) addr:0x02034890
func_020348f4 kind:function(arm,size=0x40) addr:0x020348f4
func_02034934 kind:function(arm,size=0x40) addr:0x02034934
func_02034974 kind:function(thumb,size=0x3c) addr:0x02034974
func_020349b0 kind:function(thumb,size=0x2a4) addr:0x020349b0
func_02034c54 kind:function(thumb,size=0x334) addr:0x02034c54
func_02034f88 kind:function(thumb,size=0x98) addr:0x02034f88
func_02035020 kind:function(thumb,size=0x78) addr:0x02035020
func_02035098 kind:function(thumb,size=0x10) addr:0x02035098
func_020350a8 kind:function(thumb,size=0x2) addr:0x020350a8
func_020350ac kind:function(thumb,size=0x54) addr:0x020350ac
func_02035100 kind:function(thumb,size=0x6) addr:0x02035100
func_02035108 kind:function(thumb,size=0x4) addr:0x02035108
func_0203510c kind:function(thumb,size=0x4) addr:0x0203510c
func_02035110 kind:function(thumb,size=0xe) addr:0x02035110
func_02035120 kind:function(thumb,size=0xc) addr:0x02035120
func_0203512c kind:function(thumb,size=0x14) addr:0x0203512c
func_02035140 kind:function(thumb,size=0x10) addr:0x02035140
func_02035150 kind:function(thumb,size=0x2) addr:0x02035150
func_02035154 kind:function(thumb,size=0x2) addr:0x02035154
func_02035158 kind:function(thumb,size=0x2) addr:0x02035158
func_0203515c kind:function(thumb,size=0x2) addr:0x0203515c
func_02035160 kind:function(thumb,size=0x2) addr:0x02035160
func_02035164 kind:function(thumb,size=0x2) addr:0x02035164
func_02035168 kind:function(thumb,size=0x2) addr:0x02035168
func_0203516c kind:function(thumb,size=0x2) addr:0x0203516c
func_02035170 kind:function(thumb,size=0x2) addr:0x02035170
func_02035174 kind:function(thumb,size=0x2) addr:0x02035174
func_02035178 kind:function(thumb,size=0x2) addr:0x02035178
func_0203517c kind:function(thumb,size=0x2) addr:0x0203517c
func_02035180 kind:function(thumb,size=0x3c) addr:0x02035180
func_020351bc kind:function(thumb,size=0xc) addr:0x020351bc
func_020351c8 kind:function(thumb,size=0x12) addr:0x020351c8
func_020351dc kind:function(thumb,size=0xf4) addr:0x020351dc
func_020352d0 kind:function(thumb,size=0x76) addr:0x020352d0
func_02035348 kind:function(thumb,size=0x1c) addr:0x02035348
func_02035364 kind:function(thumb,size=0x7c) addr:0x02035364
func_020353e0 kind:function(thumb,size=0x80) addr:0x020353e0
func_02035460 kind:function(thumb,size=0x118) addr:0x02035460
func_02035578 kind:function(thumb,size=0x44) addr:0x02035578
func_020355bc kind:function(thumb,size=0x88) addr:0x020355bc
func_02035644 kind:function(thumb,size=0xe) addr:0x02035644
func_02035654 kind:function(thumb,size=0x174) addr:0x02035654
func_020357c8 kind:function(thumb,size=0x14) addr:0x020357c8
func_020357dc kind:function(thumb,size=0x14) addr:0x020357dc
func_020357f0 kind:function(thumb,size=0x290) addr:0x020357f0
func_02035a80 kind:function(thumb,size=0x10) addr:0x02035a80
func_02035a90 kind:function(thumb,size=0x10) addr:0x02035a90
func_02035aa0 kind:function(thumb,size=0x3a) addr:0x02035aa0
func_02035adc kind:function(thumb,size=0xe) addr:0x02035adc
func_02035aec kind:function(thumb,size=0x18) addr:0x02035aec
func_02035b04 kind:function(thumb,size=0xa) addr:0x02035b04
func_02035b10 kind:function(thumb,size=0x6) addr:0x02035b10
func_02035b18 kind:function(thumb,size=0x2c) addr:0x02035b18
func_02035b44 kind:function(thumb,size=0x8) addr:0x02035b44
func_02035b4c kind:function(thumb,size=0x6) addr:0x02035b4c
func_02035b54 kind:function(thumb,size=0x64) addr:0x02035b54
func_02035bb8 kind:function(thumb,size=0x12) addr:0x02035bb8
func_02035bcc kind:function(thumb,size=0x8) addr:0x02035bcc
func_02035bd4 kind:function(thumb,size=0x54) addr:0x02035bd4
func_02035c28 kind:function(thumb,size=0x34) addr:0x02035c28
func_02035c5c kind:function(thumb,size=0x3c) addr:0x02035c5c
func_02035c98 kind:function(thumb,size=0x8) addr:0x02035c98
func_02035ca0 kind:function(thumb,size=0x3c) addr:0x02035ca0
func_02035cdc kind:function(thumb,size=0x28) addr:0x02035cdc
func_02035d04 kind:function(thumb,size=0x9c) addr:0x02035d04
func_02035da0 kind:function(thumb,size=0x4c) addr:0x02035da0
func_02035dec kind:function(thumb,size=0x64) addr:0x02035dec
func_02035e50 kind:function(thumb,size=0x30) addr:0x02035e50
func_02035e80 kind:function(thumb,size=0x12) addr:0x02035e80
func_02035e94 kind:function(thumb,size=0x17c) addr:0x02035e94
func_02036010 kind:function(thumb,size=0x8) addr:0x02036010
func_02036018 kind:function(thumb,size=0x3e) addr:0x02036018
func_02036058 kind:function(arm,size=0x50) addr:0x02036058
func_020360a8 kind:function(arm,size=0x34) addr:0x020360a8
func_020360dc kind:function(arm,size=0x1c) addr:0x020360dc
func_020360f8 kind:function(arm,size=0xc) addr:0x020360f8
func_02036104 kind:function(arm,size=0x20) addr:0x02036104
func_02036124 kind:function(arm,size=0x34) addr:0x02036124
func_02036158 kind:function(arm,size=0x24) addr:0x02036158
func_0203617c kind:function(arm,size=0x3c) addr:0x0203617c
func_020361b8 kind:function(arm,size=0x2c) addr:0x020361b8
func_020361e4 kind:function(arm,size=0x4) addr:0x020361e4
func_020361e8 kind:function(arm,size=0x14) addr:0x020361e8
func_020361fc kind:function(arm,size=0x4) addr:0x020361fc
func_02036200 kind:function(arm,size=0x14) addr:0x02036200
func_02036214 kind:function(arm,size=0x38) addr:0x02036214
func_0203624c kind:function(arm,size=0x14) addr:0x0203624c
func_02036260 kind:function(arm,size=0x20) addr:0x02036260
func_02036280 kind:function(arm,size=0x28) addr:0x02036280
func_020362a8 kind:function(arm,size=0x84) addr:0x020362a8
func_0203632c kind:function(arm,size=0x30) addr:0x0203632c
func_0203635c kind:function(arm,size=0x44) addr:0x0203635c
func_020363a0 kind:function(arm,size=0x18) addr:0x020363a0
func_020363b8 kind:function(arm,size=0x5c) addr:0x020363b8
func_02036414 kind:function(arm,size=0x8) addr:0x02036414
func_0203641c kind:function(arm,size=0x30) addr:0x0203641c
func_0203644c kind:function(arm,size=0x10) addr:0x0203644c
func_0203645c kind:function(arm,size=0x28) addr:0x0203645c
func_02036484 kind:function(arm,size=0x40) addr:0x02036484
func_020364c4 kind:function(arm,size=0x48) addr:0x020364c4
func_0203650c kind:function(arm,size=0x7c) addr:0x0203650c
func_02036588 kind:function(arm,size=0x38) addr:0x02036588
func_020365c0 kind:function(arm,size=0x14) addr:0x020365c0
func_020365d4 kind:function(arm,size=0x10) addr:0x020365d4
func_020365e4 kind:function(arm,size=0x30) addr:0x020365e4
func_02036614 kind:function(arm,size=0x14) addr:0x02036614
func_02036628 kind:function(arm,size=0x14) addr:0x02036628
func_0203663c kind:function(arm,size=0x8) addr:0x0203663c
func_02036644 kind:function(arm,size=0x8) addr:0x02036644
func_0203664c kind:function(arm,size=0x8) addr:0x0203664c
func_02036654 kind:function(arm,size=0x14) addr:0x02036654
func_02036668 kind:function(arm,size=0x20) addr:0x02036668
func_02036688 kind:function(arm,size=0x14) addr:0x02036688
func_0203669c kind:function(arm,size=0xa0) addr:0x0203669c
func_0203673c kind:function(arm,size=0x14) addr:0x0203673c
func_02036750 kind:function(arm,size=0x34) addr:0x02036750
func_02036784 kind:function(arm,size=0x10) addr:0x02036784
func_02036794 kind:function(arm,size=0x14) addr:0x02036794
func_020367a8 kind:function(arm,size=0x14) addr:0x020367a8
func_020367bc kind:function(arm,size=0x2c) addr:0x020367bc
func_020367e8 kind:function(arm,size=0x1c) addr:0x020367e8
func_02036804 kind:function(arm,size=0x14) addr:0x02036804
func_02036818 kind:function(arm,size=0x38) addr:0x02036818
func_02036850 kind:function(arm,size=0x18) addr:0x02036850
func_02036868 kind:function(arm,size=0x8) addr:0x02036868
func_02036870 kind:function(arm,size=0x38) addr:0x02036870
_ZN3cmn17CommonCounterInfo10initializeEv kind:function(thumb,size=0x22) addr:0x020368a8
_ZN3cmn17CommonCounterInfo16isEndWaitCounterEv kind:function(thumb,size=0x36) addr:0x020368cc
_ZN3cmn17CommonCounterInfo11setWaitZeroEi kind:function(thumb,size=0x6) addr:0x02036904
_ZN3cmn17CommonCounterInfo11checkBottunEv kind:function(thumb,size=0x90) addr:0x0203690c
_ZN3cmn17CommonCounterInfo13setDayCounterEih kind:function(thumb,size=0x8) addr:0x0203699c
_ZN3cmn17CommonCounterInfo12setChangeDayEv kind:function(thumb,size=0x1a) addr:0x020369a4
_ZN3cmn17CommonCounterInfo15isEndDayCounterEi kind:function(thumb,size=0x10) addr:0x020369c0
func_020369d0 kind:function(arm,size=0xc) addr:0x020369d0
func_020369dc kind:function(arm,size=0x690) addr:0x020369dc
func_0203706c kind:function(arm,size=0x84) addr:0x0203706c
_ZN6status15StatusChangeOneC1Ev kind:function(thumb,size=0x12) addr:0x020370f0
_ZN6status15StatusChangeOneD1Ev kind:function(thumb,size=0x2) addr:0x02037104
_ZN6status15StatusChangeOne5setupEii kind:function(thumb,size=0x48) addr:0x02037108
_ZN6status15StatusChangeOne7cleanupEv kind:function(thumb,size=0x8) addr:0x02037150
_ZN6status15StatusChangeOne5clearEv kind:function(thumb,size=0xc) addr:0x02037158
_ZN6status15StatusChangeOne7addTurnEv kind:function(thumb,size=0xd4) addr:0x02037164
_ZN6status15StatusChangeOne8isCancelEv kind:function(thumb,size=0x1e) addr:0x02037238
_ZN6status15StatusChangeOne15execStartOfTurnEv kind:function(thumb,size=0x34) addr:0x02037258
_ZN6status15StatusChangeOne13execEndOfTurnEv kind:function(thumb,size=0x30) addr:0x0203728c
_ZN6status15StatusChangeOne14execEndOfRoundEv kind:function(thumb,size=0x40) addr:0x020372bc
_ZN6status15StatusChangeOne9setEnableEi kind:function(thumb,size=0x16) addr:0x020372fc
_ZN6status15StatusChangeOne8isEnableEv kind:function(thumb,size=0xc) addr:0x02037314
_ZN6status15StatusChangeOne10setReleaseEb kind:function(thumb,size=0x16) addr:0x02037320
_ZN6status15StatusChangeOne9isReleaseEv kind:function(thumb,size=0x10) addr:0x02037338
_ZN6status15StatusChangeOne14getExecMessageEv kind:function(thumb,size=0x14) addr:0x02037348
_ZN6status15StatusChangeOne16getResultMessageEv kind:function(thumb,size=0x14) addr:0x0203735c
_ZN6status15StatusChangeOne22getResultPlayerMessageEv kind:function(thumb,size=0x14) addr:0x02037370
_ZN6status15StatusChangeOne23getResultMonsterMessageEv kind:function(thumb,size=0x14) addr:0x02037384
_ZN6status15StatusChangeOne21getAgainEnableMessageEv kind:function(thumb,size=0x14) addr:0x02037398
_ZN6status15StatusChangeOne22getAgainDisableMessageEv kind:function(thumb,size=0x14) addr:0x020373ac
_ZN6status15StatusChangeOne17getReleaseMessageEv kind:function(thumb,size=0x14) addr:0x020373c0
_ZN6status15StatusChangeOne15isValidOnAstronEi kind:function(thumb,size=0x24) addr:0x020373d4
_ZN6status15StatusChangeOne14isValidOnSpazzEi kind:function(thumb,size=0x28) addr:0x020373f8
_ZN6status15StatusChangeOne14isAfterOnSleepEi kind:function(thumb,size=0x24) addr:0x02037420
_ZN6status15StatusChangeOne14isAfterOnPath1Ei kind:function(thumb,size=0x28) addr:0x02037444
_ZN6status15StatusChangeOne16isAfterOnConfuzeEi kind:function(thumb,size=0x28) addr:0x0203746c
func_02037494 kind:function(thumb,size=0x8) addr:0x02037494
func_0203749c kind:function(thumb,size=0x84) addr:0x0203749c
func_02037520 kind:function(thumb,size=0xf4) addr:0x02037520
func_02037614 kind:function(thumb,size=0x38) addr:0x02037614
func_0203764c kind:function(thumb,size=0x6e) addr:0x0203764c
func_020376bc kind:function(thumb,size=0x8) addr:0x020376bc
func_020376c4 kind:function(thumb,size=0x20) addr:0x020376c4
func_020376e4 kind:function(thumb,size=0x28) addr:0x020376e4
func_0203770c kind:function(thumb,size=0x1c) addr:0x0203770c
func_02037728 kind:function(thumb,size=0x314) addr:0x02037728
func_02037a3c kind:function(thumb,size=0x1a8) addr:0x02037a3c
func_02037be4 kind:function(thumb,size=0xb8) addr:0x02037be4
func_02037c9c kind:function(arm,size=0x4) addr:0x02037c9c
func_02037ca0 kind:function(arm,size=0x4) addr:0x02037ca0
func_02037ca4 kind:function(arm,size=0x84) addr:0x02037ca4
func_02037d28 kind:function(arm,size=0x28) addr:0x02037d28
func_02037d50 kind:function(arm,size=0x1c) addr:0x02037d50
func_02037d6c kind:function(arm,size=0x38) addr:0x02037d6c
func_02037da4 kind:function(arm,size=0xc) addr:0x02037da4
func_02037db0 kind:function(arm,size=0x70) addr:0x02037db0
func_02037e20 kind:function(arm,size=0xd4) addr:0x02037e20
func_02037ef4 kind:function(arm,size=0x4c) addr:0x02037ef4
func_02037f40 kind:function(arm,size=0x44) addr:0x02037f40
func_02037f84 kind:function(arm,size=0x14) addr:0x02037f84
func_02037f98 kind:function(arm,size=0x9c) addr:0x02037f98
func_02038034 kind:function(arm,size=0x10c) addr:0x02038034
func_02038140 kind:function(arm,size=0x90) addr:0x02038140
func_020381d0 kind:function(arm,size=0x34) addr:0x020381d0
func_02038204 kind:function(arm,size=0x28) addr:0x02038204
func_0203822c kind:function(arm,size=0xf0) addr:0x0203822c
func_0203831c kind:function(thumb,size=0x10) addr:0x0203831c
func_0203832c kind:function(thumb,size=0xc) addr:0x0203832c
func_02038338 kind:function(thumb,size=0x8) addr:0x02038338
func_02038340 kind:function(thumb,size=0x84) addr:0x02038340
func_020383c4 kind:function(arm,size=0x4) addr:0x020383c4
func_020383c8 kind:function(arm,size=0x4) addr:0x020383c8
func_020383cc kind:function(thumb,size=0x8c) addr:0x020383cc
func_02038458 kind:function(thumb,size=0x51c) addr:0x02038458
func_02038974 kind:function(thumb,size=0xac) addr:0x02038974
func_02038a20 kind:function(thumb,size=0x11c) addr:0x02038a20
func_02038b3c kind:function(thumb,size=0x50) addr:0x02038b3c
func_02038b8c kind:function(thumb,size=0x158) addr:0x02038b8c
func_02038ce4 kind:function(thumb,size=0x46) addr:0x02038ce4
func_02038d2c kind:function(thumb,size=0x464) addr:0x02038d2c
func_02039190 kind:function(thumb,size=0x84) addr:0x02039190
func_02039214 kind:function(thumb,size=0x3c) addr:0x02039214
func_02039250 kind:function(thumb,size=0x50) addr:0x02039250
func_020392a0 kind:function(thumb,size=0x15c) addr:0x020392a0
func_020393fc kind:function(thumb,size=0x64) addr:0x020393fc
func_02039460 kind:function(arm,size=0x168) addr:0x02039460
func_020395c8 kind:function(arm,size=0x28) addr:0x020395c8
func_020395f0 kind:function(arm,size=0x28) addr:0x020395f0
func_02039618 kind:function(arm,size=0x30) addr:0x02039618
func_02039648 kind:function(arm,size=0x10) addr:0x02039648
func_02039658 kind:function(arm,size=0x5c) addr:0x02039658
func_020396b4 kind:function(arm,size=0x14) addr:0x020396b4
func_020396c8 kind:function(arm,size=0x54) addr:0x020396c8
func_0203971c kind:function(arm,size=0x8) addr:0x0203971c
func_02039724 kind:function(arm,size=0x8) addr:0x02039724
func_0203972c kind:function(arm,size=0x10) addr:0x0203972c
func_0203973c kind:function(arm,size=0x4) addr:0x0203973c
func_02039740 kind:function(arm,size=0x4) addr:0x02039740
func_02039744 kind:function(arm,size=0x4) addr:0x02039744
func_02039748 kind:function(arm,size=0x8) addr:0x02039748
func_02039750 kind:function(arm,size=0x10) addr:0x02039750
func_02039760 kind:function(arm,size=0x8) addr:0x02039760
func_02039768 kind:function(arm,size=0xd0) addr:0x02039768
func_02039838 kind:function(arm,size=0x3c) addr:0x02039838
func_02039874 kind:function(arm,size=0xa4) addr:0x02039874
func_02039918 kind:function(arm,size=0x18) addr:0x02039918
func_02039930 kind:function(arm,size=0x30) addr:0x02039930
func_02039960 kind:function(arm,size=0x9c) addr:0x02039960
func_020399fc kind:function(arm,size=0x30) addr:0x020399fc
func_02039a2c kind:function(arm,size=0x144) addr:0x02039a2c
func_02039b70 kind:function(arm,size=0x1c) addr:0x02039b70
func_02039b8c kind:function(arm,size=0xc8) addr:0x02039b8c
func_02039c54 kind:function(arm,size=0x28) addr:0x02039c54
func_02039c7c kind:function(arm,size=0x59c) addr:0x02039c7c
func_0203a218 kind:function(arm,size=0x10) addr:0x0203a218
func_0203a228 kind:function(arm,size=0x8) addr:0x0203a228
func_0203a230 kind:function(arm,size=0x24) addr:0x0203a230
func_0203a254 kind:function(arm,size=0x88) addr:0x0203a254
func_0203a2dc kind:function(arm,size=0x3c) addr:0x0203a2dc
func_0203a318 kind:function(arm,size=0x24) addr:0x0203a318
func_0203a33c kind:function(arm,size=0x4) addr:0x0203a33c
func_0203a340 kind:function(arm,size=0x4) addr:0x0203a340
func_0203a344 kind:function(thumb,size=0x2) addr:0x0203a344
func_0203a348 kind:function(thumb,size=0x2) addr:0x0203a348
func_0203a34c kind:function(thumb,size=0x8) addr:0x0203a34c
func_0203a354 kind:function(thumb,size=0x4) addr:0x0203a354
func_0203a358 kind:function(thumb,size=0xc) addr:0x0203a358
func_0203a364 kind:function(thumb,size=0x22) addr:0x0203a364
func_0203a388 kind:function(thumb,size=0x20) addr:0x0203a388
func_0203a3a8 kind:function(thumb,size=0xe4) addr:0x0203a3a8
func_0203a48c kind:function(thumb,size=0xe8) addr:0x0203a48c
func_0203a574 kind:function(thumb,size=0x18) addr:0x0203a574
func_0203a58c kind:function(thumb,size=0x18) addr:0x0203a58c
func_0203a5a4 kind:function(thumb,size=0x18) addr:0x0203a5a4
func_0203a5bc kind:function(thumb,size=0x30) addr:0x0203a5bc
func_0203a5ec kind:function(thumb,size=0x18) addr:0x0203a5ec
func_0203a604 kind:function(thumb,size=0x58) addr:0x0203a604
func_0203a65c kind:function(thumb,size=0x18) addr:0x0203a65c
func_0203a674 kind:function(thumb,size=0x62) addr:0x0203a674
func_0203a6d8 kind:function(thumb,size=0x1a) addr:0x0203a6d8
func_0203a6f4 kind:function(thumb,size=0x20) addr:0x0203a6f4
func_0203a714 kind:function(thumb,size=0x1a) addr:0x0203a714
func_0203a730 kind:function(thumb,size=0x20) addr:0x0203a730
func_0203a750 kind:function(thumb,size=0x1a) addr:0x0203a750
func_0203a76c kind:function(thumb,size=0x20) addr:0x0203a76c
func_0203a78c kind:function(thumb,size=0x1a) addr:0x0203a78c
func_0203a7a8 kind:function(thumb,size=0x78) addr:0x0203a7a8
func_0203a820 kind:function(thumb,size=0x1c) addr:0x0203a820
func_0203a83c kind:function(thumb,size=0xfc) addr:0x0203a83c
func_0203a938 kind:function(thumb,size=0x1a) addr:0x0203a938
func_0203a954 kind:function(thumb,size=0x78) addr:0x0203a954
func_0203a9cc kind:function(thumb,size=0x32) addr:0x0203a9cc
func_0203aa00 kind:function(thumb,size=0x58) addr:0x0203aa00
func_0203aa58 kind:function(thumb,size=0x54) addr:0x0203aa58
func_0203aaac kind:function(thumb,size=0x74) addr:0x0203aaac
func_0203ab20 kind:function(thumb,size=0x10) addr:0x0203ab20
func_0203ab30 kind:function(thumb,size=0x10) addr:0x0203ab30
func_0203ab40 kind:function(arm,size=0x4) addr:0x0203ab40
func_0203ab44 kind:function(arm,size=0x4) addr:0x0203ab44
func_0203ab48 kind:function(arm,size=0x54) addr:0x0203ab48
func_0203ab9c kind:function(arm,size=0x14) addr:0x0203ab9c
func_0203abb0 kind:function(arm,size=0x4) addr:0x0203abb0
func_0203abb4 kind:function(arm,size=0x44) addr:0x0203abb4
func_0203abf8 kind:function(arm,size=0xd4) addr:0x0203abf8
func_0203accc kind:function(arm,size=0x1ac) addr:0x0203accc
func_0203ae78 kind:function(arm,size=0x40) addr:0x0203ae78
func_0203aeb8 kind:function(arm,size=0x90) addr:0x0203aeb8
func_0203af48 kind:function(arm,size=0x44) addr:0x0203af48
func_0203af8c kind:function(thumb,size=0x44) addr:0x0203af8c
func_0203afd0 kind:function(thumb,size=0x20) addr:0x0203afd0
func_0203aff0 kind:function(thumb,size=0x14) addr:0x0203aff0
func_0203b004 kind:function(thumb,size=0x14) addr:0x0203b004
func_0203b018 kind:function(thumb,size=0x1c) addr:0x0203b018
func_0203b034 kind:function(thumb,size=0xbc) addr:0x0203b034
func_0203b0f0 kind:function(thumb,size=0x68) addr:0x0203b0f0
func_0203b158 kind:function(thumb,size=0x2c) addr:0x0203b158
func_0203b184 kind:function(thumb,size=0x44) addr:0x0203b184
func_0203b1c8 kind:function(thumb,size=0x90) addr:0x0203b1c8
func_0203b258 kind:function(thumb,size=0x140) addr:0x0203b258
func_0203b398 kind:function(thumb,size=0x40) addr:0x0203b398
func_0203b3d8 kind:function(thumb,size=0x28) addr:0x0203b3d8
func_0203b400 kind:function(thumb,size=0xe4) addr:0x0203b400
func_0203b4e4 kind:function(thumb,size=0x2e) addr:0x0203b4e4
func_0203b514 kind:function(thumb,size=0x1b8) addr:0x0203b514
func_0203b6cc kind:function(thumb,size=0x3c) addr:0x0203b6cc
func_0203b708 kind:function(thumb,size=0x48) addr:0x0203b708
func_0203b750 kind:function(thumb,size=0x48) addr:0x0203b750
func_0203b798 kind:function(thumb,size=0x20) addr:0x0203b798
func_0203b7b8 kind:function(thumb,size=0xec) addr:0x0203b7b8
func_0203b8a4 kind:function(thumb,size=0x34) addr:0x0203b8a4
func_0203b8d8 kind:function(thumb,size=0xc) addr:0x0203b8d8
func_0203b8e4 kind:function(thumb,size=0xa4) addr:0x0203b8e4
func_0203b988 kind:function(thumb,size=0x14) addr:0x0203b988
func_0203b99c kind:function(thumb,size=0x270) addr:0x0203b99c
func_0203bc0c kind:function(thumb,size=0x904) addr:0x0203bc0c
func_0203c510 kind:function(thumb,size=0x5c) addr:0x0203c510
func_0203c56c kind:function(thumb,size=0xa) addr:0x0203c56c
func_0203c578 kind:function(thumb,size=0xc0) addr:0x0203c578
func_0203c638 kind:function(thumb,size=0x24) addr:0x0203c638
func_0203c65c kind:function(thumb,size=0x2c) addr:0x0203c65c
func_0203c688 kind:function(thumb,size=0x34) addr:0x0203c688
func_0203c6bc kind:function(thumb,size=0x48) addr:0x0203c6bc
func_0203c704 kind:function(thumb,size=0x4c) addr:0x0203c704
func_0203c750 kind:function(thumb,size=0x4c) addr:0x0203c750
func_0203c79c kind:function(thumb,size=0x58) addr:0x0203c79c
func_0203c7f4 kind:function(thumb,size=0x60) addr:0x0203c7f4
func_0203c854 kind:function(thumb,size=0x90) addr:0x0203c854
func_0203c8e4 kind:function(thumb,size=0x28) addr:0x0203c8e4
func_0203c90c kind:function(thumb,size=0xa4) addr:0x0203c90c
func_0203c9b0 kind:function(thumb,size=0x7c) addr:0x0203c9b0
func_0203ca2c kind:function(thumb,size=0x1e0) addr:0x0203ca2c
func_0203cc0c kind:function(thumb,size=0x14) addr:0x0203cc0c
func_0203cc20 kind:function(thumb,size=0x2c) addr:0x0203cc20
func_0203cc4c kind:function(thumb,size=0x60) addr:0x0203cc4c
func_0203ccac kind:function(thumb,size=0x98) addr:0x0203ccac
func_0203cd44 kind:function(thumb,size=0xe4) addr:0x0203cd44
func_0203ce28 kind:function(thumb,size=0x94) addr:0x0203ce28
func_0203cebc kind:function(thumb,size=0x58) addr:0x0203cebc
func_0203cf14 kind:function(thumb,size=0x94) addr:0x0203cf14
func_0203cfa8 kind:function(thumb,size=0x64) addr:0x0203cfa8
func_0203d00c kind:function(thumb,size=0x4) addr:0x0203d00c
func_0203d010 kind:function(thumb,size=0x22) addr:0x0203d010
func_0203d034 kind:function(thumb,size=0x90) addr:0x0203d034
func_0203d0c4 kind:function(thumb,size=0x160) addr:0x0203d0c4
func_0203d224 kind:function(thumb,size=0x40) addr:0x0203d224
func_0203d264 kind:function(thumb,size=0x40c) addr:0x0203d264
func_0203d670 kind:function(arm,size=0x10) addr:0x0203d670
func_0203d680 kind:function(arm,size=0x4) addr:0x0203d680
func_0203d684 kind:function(arm,size=0x4) addr:0x0203d684
func_0203d688 kind:function(arm,size=0x5c) addr:0x0203d688
func_0203d6e4 kind:function(arm,size=0x3c) addr:0x0203d6e4
func_0203d720 kind:function(arm,size=0xc4) addr:0x0203d720
func_0203d7e4 kind:function(thumb,size=0x28) addr:0x0203d7e4
func_0203d80c kind:function(thumb,size=0x10) addr:0x0203d80c
func_0203d81c kind:function(thumb,size=0x78) addr:0x0203d81c
func_0203d894 kind:function(thumb,size=0x12c) addr:0x0203d894
func_0203d9c0 kind:function(thumb,size=0x1c) addr:0x0203d9c0
func_0203d9dc kind:function(thumb,size=0x38) addr:0x0203d9dc
func_0203da14 kind:function(thumb,size=0x78) addr:0x0203da14
func_0203da8c kind:function(thumb,size=0x34) addr:0x0203da8c
func_0203dac0 kind:function(thumb,size=0x190) addr:0x0203dac0
func_0203dc50 kind:function(thumb,size=0x14) addr:0x0203dc50
func_0203dc64 kind:function(thumb,size=0x1b4) addr:0x0203dc64
func_0203de18 kind:function(thumb,size=0x100) addr:0x0203de18
func_0203df18 kind:function(thumb,size=0x238) addr:0x0203df18
func_0203e150 kind:function(thumb,size=0x254) addr:0x0203e150
func_0203e3a4 kind:function(thumb,size=0x14c) addr:0x0203e3a4
func_0203e4f0 kind:function(thumb,size=0x30) addr:0x0203e4f0
func_0203e520 kind:function(thumb,size=0x58) addr:0x0203e520
func_0203e578 kind:function(thumb,size=0x18) addr:0x0203e578
func_0203e590 kind:function(thumb,size=0x18) addr:0x0203e590
func_0203e5a8 kind:function(arm,size=0x54) addr:0x0203e5a8
func_0203e5fc kind:function(arm,size=0x14) addr:0x0203e5fc
func_0203e610 kind:function(arm,size=0x14) addr:0x0203e610
func_0203e624 kind:function(arm,size=0x224) addr:0x0203e624
func_0203e848 kind:function(arm,size=0x20) addr:0x0203e848
func_0203e868 kind:function(arm,size=0x20) addr:0x0203e868
func_0203e888 kind:function(arm,size=0x44) addr:0x0203e888
func_0203e8cc kind:function(arm,size=0x2c) addr:0x0203e8cc
func_0203e8f8 kind:function(arm,size=0x6c) addr:0x0203e8f8
func_0203e964 kind:function(arm,size=0x34) addr:0x0203e964
func_0203e998 kind:function(arm,size=0x2c) addr:0x0203e998
func_0203e9c4 kind:function(arm,size=0x6c) addr:0x0203e9c4
func_0203ea30 kind:function(arm,size=0x34) addr:0x0203ea30
func_0203ea64 kind:function(arm,size=0xc0) addr:0x0203ea64
func_0203eb24 kind:function(arm,size=0x194) addr:0x0203eb24
func_0203ecb8 kind:function(arm,size=0xac) addr:0x0203ecb8
func_0203ed64 kind:function(arm,size=0x84) addr:0x0203ed64
func_0203ede8 kind:function(arm,size=0x4) addr:0x0203ede8
func_0203edec kind:function(arm,size=0x6c) addr:0x0203edec
func_0203ee58 kind:function(arm,size=0x4) addr:0x0203ee58
func_0203ee5c kind:function(arm,size=0x28) addr:0x0203ee5c
func_0203ee84 kind:function(arm,size=0xe4) addr:0x0203ee84
func_0203ef68 kind:function(arm,size=0x230) addr:0x0203ef68
func_0203f198 kind:function(arm,size=0x4) addr:0x0203f198
func_0203f19c kind:function(arm,size=0x4) addr:0x0203f19c
func_0203f1a0 kind:function(arm,size=0x4) addr:0x0203f1a0
func_0203f1a4 kind:function(arm,size=0x4) addr:0x0203f1a4
func_0203f1a8 kind:function(arm,size=0xc) addr:0x0203f1a8
func_0203f1b4 kind:function(arm,size=0x40) addr:0x0203f1b4
func_0203f1f4 kind:function(arm,size=0x1c) addr:0x0203f1f4
func_0203f210 kind:function(arm,size=0x30) addr:0x0203f210
func_0203f240 kind:function(arm,size=0x28) addr:0x0203f240
func_0203f268 kind:function(arm,size=0x10) addr:0x0203f268
func_0203f278 kind:function(arm,size=0x18) addr:0x0203f278
func_0203f290 kind:function(arm,size=0x4) addr:0x0203f290
func_0203f294 kind:function(arm,size=0xd4) addr:0x0203f294
func_0203f368 kind:function(arm,size=0xfc) addr:0x0203f368
func_0203f464 kind:function(arm,size=0x120) addr:0x0203f464
func_0203f584 kind:function(arm,size=0x8c) addr:0x0203f584
func_0203f610 kind:function(arm,size=0x88) addr:0x0203f610
func_0203f698 kind:function(arm,size=0x350) addr:0x0203f698
func_0203f9e8 kind:function(arm,size=0xe0) addr:0x0203f9e8
func_0203fac8 kind:function(arm,size=0x3cc) addr:0x0203fac8
func_0203fe94 kind:function(arm,size=0x198) addr:0x0203fe94
func_0204002c kind:function(arm,size=0x25c) addr:0x0204002c
func_02040288 kind:function(arm,size=0xa8) addr:0x02040288
func_02040330 kind:function(arm,size=0xa8) addr:0x02040330
func_020403d8 kind:function(arm,size=0x188) addr:0x020403d8
func_02040560 kind:function(arm,size=0x1cc) addr:0x02040560
func_0204072c kind:function(arm,size=0x1f4) addr:0x0204072c
func_02040920 kind:function(arm,size=0x8) addr:0x02040920
func_02040928 kind:function(arm,size=0x64) addr:0x02040928
func_0204098c kind:function(arm,size=0x64) addr:0x0204098c
func_020409f0 kind:function(arm,size=0x9c) addr:0x020409f0
func_02040a8c kind:function(arm,size=0x9c) addr:0x02040a8c
func_02040b28 kind:function(arm,size=0xac) addr:0x02040b28
func_02040bd4 kind:function(arm,size=0xa8) addr:0x02040bd4
func_02040c7c kind:function(arm,size=0x50) addr:0x02040c7c
func_02040ccc kind:function(arm,size=0x43c) addr:0x02040ccc
func_02041108 kind:function(arm,size=0xc8) addr:0x02041108
func_020411d0 kind:function(arm,size=0x248) addr:0x020411d0
func_02041418 kind:function(arm,size=0x214) addr:0x02041418
func_0204162c kind:function(arm,size=0x320) addr:0x0204162c
func_0204194c kind:function(arm,size=0x13c) addr:0x0204194c
func_02041a88 kind:function(arm,size=0x74) addr:0x02041a88
func_02041afc kind:function(arm,size=0x6c0) addr:0x02041afc
func_020421bc kind:function(arm,size=0x1c) addr:0x020421bc
func_020421d8 kind:function(arm,size=0x14) addr:0x020421d8
func_020421ec kind:function(arm,size=0x100) addr:0x020421ec
func_020422ec kind:function(arm,size=0x13c) addr:0x020422ec
func_02042428 kind:function(arm,size=0x954) addr:0x02042428
func_02042d7c kind:function(arm,size=0x10) addr:0x02042d7c
func_02042d8c kind:function(arm,size=0x13c) addr:0x02042d8c
func_02042ec8 kind:function(arm,size=0x364) addr:0x02042ec8
func_0204322c kind:function(arm,size=0x1b8) addr:0x0204322c
func_020433e4 kind:function(arm,size=0x190) addr:0x020433e4
func_02043574 kind:function(arm,size=0x20) addr:0x02043574
func_02043594 kind:function(arm,size=0x20) addr:0x02043594
func_020435b4 kind:function(arm,size=0x20) addr:0x020435b4
func_020435d4 kind:function(arm,size=0x54) addr:0x020435d4
func_02043628 kind:function(arm,size=0x32c) addr:0x02043628
func_02043954 kind:function(arm,size=0x338) addr:0x02043954
func_02043c8c kind:function(arm,size=0xd8) addr:0x02043c8c
func_02043d64 kind:function(arm,size=0x48) addr:0x02043d64
func_02043dac kind:function(arm,size=0x20) addr:0x02043dac
func_02043dcc kind:function(arm,size=0x344) addr:0x02043dcc
func_02044110 kind:function(arm,size=0x4e4) addr:0x02044110
func_020445f4 kind:function(arm,size=0x208) addr:0x020445f4
func_020447fc kind:function(arm,size=0x4c) addr:0x020447fc
func_02044848 kind:function(arm,size=0x18c) addr:0x02044848
func_020449d4 kind:function(arm,size=0x74) addr:0x020449d4
func_02044a48 kind:function(arm,size=0x10c) addr:0x02044a48
func_02044b54 kind:function(arm,size=0x460) addr:0x02044b54
func_02044fb4 kind:function(arm,size=0x50) addr:0x02044fb4
func_02045004 kind:function(arm,size=0x100) addr:0x02045004
func_02045104 kind:function(arm,size=0x100) addr:0x02045104
func_02045204 kind:function(arm,size=0x138) addr:0x02045204
func_0204533c kind:function(arm,size=0x24) addr:0x0204533c
func_02045360 kind:function(arm,size=0x9c) addr:0x02045360
func_020453fc kind:function(arm,size=0x60) addr:0x020453fc
func_0204545c kind:function(arm,size=0x9b4) addr:0x0204545c
func_02045e10 kind:function(arm,size=0x158) addr:0x02045e10
func_02045f68 kind:function(arm,size=0x68) addr:0x02045f68
func_02045fd0 kind:function(arm,size=0x64) addr:0x02045fd0
func_02046034 kind:function(arm,size=0x40) addr:0x02046034
func_02046074 kind:function(arm,size=0x70) addr:0x02046074
func_020460e4 kind:function(arm,size=0x34) addr:0x020460e4
func_02046118 kind:function(arm,size=0x7c) addr:0x02046118
func_02046194 kind:function(arm,size=0x74) addr:0x02046194
func_02046208 kind:function(arm,size=0x74) addr:0x02046208
func_0204627c kind:function(arm,size=0x74) addr:0x0204627c
func_020462f0 kind:function(arm,size=0x74) addr:0x020462f0
func_02046364 kind:function(arm,size=0x80) addr:0x02046364
func_020463e4 kind:function(arm,size=0x8c) addr:0x020463e4
func_02046470 kind:function(arm,size=0x8c) addr:0x02046470
func_020464fc kind:function(arm,size=0x5c) addr:0x020464fc
func_02046558 kind:function(arm,size=0x5c) addr:0x02046558
func_020465b4 kind:function(arm,size=0x2c8) addr:0x020465b4
func_0204687c kind:function(arm,size=0x3c) addr:0x0204687c
func_020468b8 kind:function(arm,size=0x2ec) addr:0x020468b8
func_02046ba4 kind:function(arm,size=0x7c) addr:0x02046ba4
func_02046c20 kind:function(arm,size=0xd4) addr:0x02046c20
func_02046cf4 kind:function(arm,size=0xd4) addr:0x02046cf4
func_02046dc8 kind:function(arm,size=0x48) addr:0x02046dc8
func_02046e10 kind:function(arm,size=0x18) addr:0x02046e10
func_02046e28 kind:function(arm,size=0x18) addr:0x02046e28
func_02046e40 kind:function(arm,size=0x6c) addr:0x02046e40
func_02046eac kind:function(arm,size=0x88) addr:0x02046eac
func_02046f34 kind:function(arm,size=0x18) addr:0x02046f34
func_02046f4c kind:function(arm,size=0x18) addr:0x02046f4c
func_02046f64 kind:function(arm,size=0x10) addr:0x02046f64
func_02046f74 kind:function(arm,size=0x6c) addr:0x02046f74
func_02046fe0 kind:function(arm,size=0x1ac) addr:0x02046fe0
func_0204718c kind:function(arm,size=0xa0) addr:0x0204718c
func_0204722c kind:function(arm,size=0xbc) addr:0x0204722c
func_020472e8 kind:function(arm,size=0x68) addr:0x020472e8
func_02047350 kind:function(arm,size=0x10) addr:0x02047350
func_02047360 kind:function(arm,size=0x114) addr:0x02047360
func_02047474 kind:function(arm,size=0x40) addr:0x02047474
func_020474b4 kind:function(arm,size=0x94) addr:0x020474b4
func_02047548 kind:function(arm,size=0xd0) addr:0x02047548
func_02047618 kind:function(arm,size=0x40) addr:0x02047618
func_02047658 kind:function(arm,size=0x98) addr:0x02047658
func_020476f0 kind:function(arm,size=0x38) addr:0x020476f0
func_02047728 kind:function(arm,size=0x8) addr:0x02047728
func_02047730 kind:function(arm,size=0x4) addr:0x02047730
func_02047734 kind:function(arm,size=0xf4) addr:0x02047734
func_02047828 kind:function(arm,size=0x54) addr:0x02047828
func_0204787c kind:function(arm,size=0x1c) addr:0x0204787c
func_02047898 kind:function(arm,size=0x48) addr:0x02047898
func_020478e0 kind:function(arm,size=0xe4) addr:0x020478e0
func_020479c4 kind:function(arm,size=0x64) addr:0x020479c4
func_02047a28 kind:function(arm,size=0x10) addr:0x02047a28
func_02047a38 kind:function(arm,size=0x78) addr:0x02047a38
func_02047ab0 kind:function(arm,size=0x14) addr:0x02047ab0
func_02047ac4 kind:function(arm,size=0x14) addr:0x02047ac4
func_02047ad8 kind:function(arm,size=0x2c) addr:0x02047ad8
func_02047b04 kind:function(arm,size=0x10) addr:0x02047b04
func_02047b14 kind:function(arm,size=0x60) addr:0x02047b14
func_02047b74 kind:function(arm,size=0x68) addr:0x02047b74
func_02047bdc kind:function(arm,size=0x10) addr:0x02047bdc
func_02047bec kind:function(arm,size=0x58) addr:0x02047bec
func_02047c44 kind:function(arm,size=0xa0) addr:0x02047c44
func_02047ce4 kind:function(arm,size=0x14) addr:0x02047ce4
func_02047cf8 kind:function(arm,size=0x20) addr:0x02047cf8
func_02047d18 kind:function(arm,size=0xfc) addr:0x02047d18
func_02047e14 kind:function(arm,size=0x130) addr:0x02047e14
func_02047f44 kind:function(arm,size=0x118) addr:0x02047f44
func_0204805c kind:function(arm,size=0x44) addr:0x0204805c
func_020480a0 kind:function(arm,size=0x10) addr:0x020480a0
func_020480b0 kind:function(arm,size=0x44) addr:0x020480b0
func_020480f4 kind:function(arm,size=0x2c) addr:0x020480f4
func_02048120 kind:function(arm,size=0x38) addr:0x02048120
func_02048158 kind:function(arm,size=0x138) addr:0x02048158
func_02048290 kind:function(arm,size=0x3c) addr:0x02048290
func_020482cc kind:function(arm,size=0x4c) addr:0x020482cc
func_02048318 kind:function(arm,size=0x1c) addr:0x02048318
func_02048334 kind:function(arm,size=0xcc) addr:0x02048334
func_02048400 kind:function(arm,size=0x9c) addr:0x02048400
func_0204849c kind:function(arm,size=0x50) addr:0x0204849c
func_020484ec kind:function(arm,size=0x13c) addr:0x020484ec
func_02048628 kind:function(arm,size=0x5d0) addr:0x02048628
func_02048bf8 kind:function(arm,size=0x10) addr:0x02048bf8
func_02048c08 kind:function(arm,size=0x44) addr:0x02048c08
func_02048c4c kind:function(arm,size=0x1c4) addr:0x02048c4c
func_02048e10 kind:function(thumb,size=0x16) addr:0x02048e10
func_02048e28 kind:function(thumb,size=0xc) addr:0x02048e28
func_02048e34 kind:function(thumb,size=0x18) addr:0x02048e34
func_02048e4c kind:function(thumb,size=0x4) addr:0x02048e4c
func_02048e50 kind:function(thumb,size=0x10) addr:0x02048e50
func_02048e60 kind:function(thumb,size=0x7e) addr:0x02048e60
func_02048ee0 kind:function(thumb,size=0x9c) addr:0x02048ee0
func_02048f7c kind:function(thumb,size=0x14) addr:0x02048f7c
func_02048f90 kind:function(thumb,size=0x66) addr:0x02048f90
func_02048ff8 kind:function(thumb,size=0x50) addr:0x02048ff8
func_02049048 kind:function(arm,size=0xa4) addr:0x02049048
func_020490ec kind:function(arm,size=0x78) addr:0x020490ec
func_02049164 kind:function(arm,size=0x2c) addr:0x02049164
func_02049190 kind:function(arm,size=0x10) addr:0x02049190
func_020491a0 kind:function(arm,size=0x2c) addr:0x020491a0
func_020491cc kind:function(arm,size=0x90) addr:0x020491cc
func_0204925c kind:function(arm,size=0x3c) addr:0x0204925c
func_02049298 kind:function(arm,size=0xdc) addr:0x02049298
func_02049374 kind:function(arm,size=0xa8) addr:0x02049374
func_0204941c kind:function(arm,size=0x70) addr:0x0204941c
func_0204948c kind:function(arm,size=0x8) addr:0x0204948c
func_02049494 kind:function(arm,size=0x4c) addr:0x02049494
func_020494e0 kind:function(arm,size=0x21c) addr:0x020494e0
func_020496fc kind:function(arm,size=0x68) addr:0x020496fc
func_02049764 kind:function(arm,size=0x18) addr:0x02049764
func_0204977c kind:function(arm,size=0x10) addr:0x0204977c
func_0204978c kind:function(arm,size=0x18) addr:0x0204978c
func_020497a4 kind:function(arm,size=0x18) addr:0x020497a4
func_020497bc kind:function(arm,size=0x18) addr:0x020497bc
func_020497d4 kind:function(arm,size=0x14) addr:0x020497d4
func_020497e8 kind:function(arm,size=0x14) addr:0x020497e8
func_020497fc kind:function(arm,size=0x18) addr:0x020497fc
func_02049814 kind:function(arm,size=0x54) addr:0x02049814
func_02049868 kind:function(arm,size=0x18) addr:0x02049868
func_02049880 kind:function(arm,size=0x18) addr:0x02049880
func_02049898 kind:function(arm,size=0x38) addr:0x02049898
func_020498d0 kind:function(arm,size=0x18) addr:0x020498d0
func_020498e8 kind:function(arm,size=0x9c) addr:0x020498e8
func_02049984 kind:function(arm,size=0x10) addr:0x02049984
func_02049994 kind:function(arm,size=0x10) addr:0x02049994
func_020499a4 kind:function(arm,size=0x30) addr:0x020499a4
func_020499d4 kind:function(arm,size=0x1c) addr:0x020499d4
func_020499f0 kind:function(arm,size=0x10) addr:0x020499f0
func_02049a00 kind:function(arm,size=0x18) addr:0x02049a00
func_02049a18 kind:function(arm,size=0x2c) addr:0x02049a18
func_02049a44 kind:function(arm,size=0xfc) addr:0x02049a44
func_02049b40 kind:function(arm,size=0x3c) addr:0x02049b40
func_02049b7c kind:function(arm,size=0x18) addr:0x02049b7c
func_02049b94 kind:function(arm,size=0x10) addr:0x02049b94
func_02049ba4 kind:function(arm,size=0x310) addr:0x02049ba4
func_02049eb4 kind:function(arm,size=0x24) addr:0x02049eb4
func_02049ed8 kind:function(arm,size=0x98) addr:0x02049ed8
func_02049f70 kind:function(arm,size=0x4) addr:0x02049f70
func_02049f74 kind:function(arm,size=0xb0) addr:0x02049f74
func_0204a024 kind:function(arm,size=0x10) addr:0x0204a024
func_0204a034 kind:function(arm,size=0x10) addr:0x0204a034
func_0204a044 kind:function(arm,size=0x4) addr:0x0204a044
func_0204a048 kind:function(arm,size=0x150) addr:0x0204a048
func_0204a198 kind:function(arm,size=0x18) addr:0x0204a198
func_0204a1b0 kind:function(arm,size=0x24) addr:0x0204a1b0
func_0204a1d4 kind:function(arm,size=0x10) addr:0x0204a1d4
func_0204a1e4 kind:function(arm,size=0x34) addr:0x0204a1e4
func_0204a218 kind:function(arm,size=0x30) addr:0x0204a218
func_0204a248 kind:function(arm,size=0x18) addr:0x0204a248
func_0204a260 kind:function(arm,size=0x18) addr:0x0204a260
func_0204a278 kind:function(arm,size=0x3f0) addr:0x0204a278
func_0204a668 kind:function(arm,size=0xc) addr:0x0204a668
func_0204a674 kind:function(arm,size=0xc) addr:0x0204a674
func_0204a680 kind:function(arm,size=0xc) addr:0x0204a680
func_0204a68c kind:function(arm,size=0x54) addr:0x0204a68c
func_0204a6e0 kind:function(arm,size=0xb0) addr:0x0204a6e0
func_0204a790 kind:function(arm,size=0x144) addr:0x0204a790
func_0204a8d4 kind:function(arm,size=0x288) addr:0x0204a8d4
func_0204ab5c kind:function(arm,size=0x1f4) addr:0x0204ab5c
func_0204ad50 kind:function(arm,size=0x1a0) addr:0x0204ad50
func_0204aef0 kind:function(arm,size=0x238) addr:0x0204aef0
func_0204b128 kind:function(arm,size=0x20) addr:0x0204b128
func_0204b148 kind:function(arm,size=0x18) addr:0x0204b148
func_0204b160 kind:function(arm,size=0x20) addr:0x0204b160
func_0204b180 kind:function(arm,size=0x38) addr:0x0204b180
func_0204b1b8 kind:function(arm,size=0x38) addr:0x0204b1b8
func_0204b1f0 kind:function(arm,size=0x20) addr:0x0204b1f0
func_0204b210 kind:function(arm,size=0x20) addr:0x0204b210
func_0204b230 kind:function(arm,size=0x2c) addr:0x0204b230
func_0204b25c kind:function(arm,size=0xbc) addr:0x0204b25c
func_0204b318 kind:function(arm,size=0x24) addr:0x0204b318
func_0204b33c kind:function(arm,size=0x44) addr:0x0204b33c
func_0204b380 kind:function(arm,size=0x2c) addr:0x0204b380
func_0204b3ac kind:function(arm,size=0x58) addr:0x0204b3ac
func_0204b404 kind:function(arm,size=0x118) addr:0x0204b404
func_0204b51c kind:function(arm,size=0x34) addr:0x0204b51c
func_0204b550 kind:function(arm,size=0x48) addr:0x0204b550
func_0204b598 kind:function(arm,size=0x5c) addr:0x0204b598
func_0204b5f4 kind:function(arm,size=0x34) addr:0x0204b5f4
func_0204b628 kind:function(arm,size=0x18) addr:0x0204b628
func_0204b640 kind:function(arm,size=0x3c) addr:0x0204b640
func_0204b67c kind:function(arm,size=0x18) addr:0x0204b67c
func_0204b694 kind:function(arm,size=0x30) addr:0x0204b694
func_0204b6c4 kind:function(arm,size=0x1c) addr:0x0204b6c4
func_0204b6e0 kind:function(arm,size=0x20) addr:0x0204b6e0
func_0204b700 kind:function(arm,size=0x4) addr:0x0204b700
func_0204b704 kind:function(arm,size=0x40) addr:0x0204b704
func_0204b744 kind:function(arm,size=0x24) addr:0x0204b744
func_0204b768 kind:function(arm,size=0x7c) addr:0x0204b768
func_0204b7e4 kind:function(arm,size=0x4) addr:0x0204b7e4
func_0204b7e8 kind:function(arm,size=0x20) addr:0x0204b7e8
func_0204b808 kind:function(arm,size=0x14) addr:0x0204b808
func_0204b81c kind:function(arm,size=0x30) addr:0x0204b81c
func_0204b84c kind:function(arm,size=0x4) addr:0x0204b84c
func_0204b850 kind:function(arm,size=0x1cc) addr:0x0204b850
func_0204ba1c kind:function(arm,size=0x1d8) addr:0x0204ba1c
func_0204bbf4 kind:function(arm,size=0x5c) addr:0x0204bbf4
func_0204bc50 kind:function(arm,size=0x24) addr:0x0204bc50
func_0204bc74 kind:function(arm,size=0x3c8) addr:0x0204bc74
func_0204c03c kind:function(arm,size=0x8) addr:0x0204c03c
func_0204c044 kind:function(arm,size=0x204) addr:0x0204c044
func_0204c248 kind:function(arm,size=0x8c) addr:0x0204c248
func_0204c2d4 kind:function(arm,size=0x8) addr:0x0204c2d4
func_0204c2dc kind:function(arm,size=0x8) addr:0x0204c2dc
func_0204c2e4 kind:function(arm,size=0x178) addr:0x0204c2e4
func_0204c45c kind:function(arm,size=0xfc) addr:0x0204c45c
func_0204c558 kind:function(arm,size=0xc) addr:0x0204c558
func_0204c564 kind:function(arm,size=0xe8) addr:0x0204c564
func_0204c64c kind:function(arm,size=0xf4) addr:0x0204c64c
func_0204c740 kind:function(arm,size=0x134) addr:0x0204c740
func_0204c874 kind:function(arm,size=0x2ec) addr:0x0204c874
func_0204cb60 kind:function(arm,size=0xe4) addr:0x0204cb60
func_0204cc44 kind:function(arm,size=0xb0) addr:0x0204cc44
func_0204ccf4 kind:function(arm,size=0x78) addr:0x0204ccf4
func_0204cd6c kind:function(arm,size=0xc) addr:0x0204cd6c
func_0204cd78 kind:function(arm,size=0x38) addr:0x0204cd78
func_0204cdb0 kind:function(arm,size=0x18c) addr:0x0204cdb0
func_0204cf3c kind:function(arm,size=0xd4) addr:0x0204cf3c
func_0204d010 kind:function(arm,size=0x28) addr:0x0204d010
func_0204d038 kind:function(arm,size=0x14) addr:0x0204d038
func_0204d04c kind:function(arm,size=0x38) addr:0x0204d04c
func_0204d084 kind:function(arm,size=0x28) addr:0x0204d084
func_0204d0ac kind:function(arm,size=0xc) addr:0x0204d0ac
func_0204d0b8 kind:function(arm,size=0xc) addr:0x0204d0b8
func_0204d0c4 kind:function(arm,size=0x18) addr:0x0204d0c4
func_0204d0dc kind:function(arm,size=0x18) addr:0x0204d0dc
func_0204d0f4 kind:function(thumb,size=0x14) addr:0x0204d0f4
func_0204d108 kind:function(thumb,size=0x14) addr:0x0204d108
func_0204d11c kind:function(thumb,size=0x6) addr:0x0204d11c
func_0204d124 kind:function(thumb,size=0x2) addr:0x0204d124
func_0204d128 kind:function(thumb,size=0x4c) addr:0x0204d128
func_0204d174 kind:function(thumb,size=0x30) addr:0x0204d174
func_0204d1a4 kind:function(thumb,size=0x3e) addr:0x0204d1a4
func_0204d1e4 kind:function(thumb,size=0x64) addr:0x0204d1e4
func_0204d248 kind:function(thumb,size=0x8) addr:0x0204d248
func_0204d250 kind:function(thumb,size=0x154) addr:0x0204d250
func_0204d3a4 kind:function(thumb,size=0x24) addr:0x0204d3a4
func_0204d3c8 kind:function(thumb,size=0x10) addr:0x0204d3c8
func_0204d3d8 kind:function(thumb,size=0x1a0) addr:0x0204d3d8
func_0204d578 kind:function(thumb,size=0x3c) addr:0x0204d578
func_0204d5b4 kind:function(thumb,size=0x158) addr:0x0204d5b4
func_0204d70c kind:function(thumb,size=0xb8) addr:0x0204d70c
func_0204d7c4 kind:function(thumb,size=0x52) addr:0x0204d7c4
func_0204d818 kind:function(thumb,size=0x2) addr:0x0204d818
func_0204d81c kind:function(thumb,size=0x208) addr:0x0204d81c
func_0204da24 kind:function(thumb,size=0x90) addr:0x0204da24
func_0204dab4 kind:function(thumb,size=0x60) addr:0x0204dab4
func_0204db14 kind:function(thumb,size=0xfc) addr:0x0204db14
func_0204dc10 kind:function(thumb,size=0x24) addr:0x0204dc10
func_0204dc34 kind:function(thumb,size=0x8c) addr:0x0204dc34
func_0204dcc0 kind:function(thumb,size=0x30) addr:0x0204dcc0
func_0204dcf0 kind:function(thumb,size=0x48) addr:0x0204dcf0
func_0204dd38 kind:function(thumb,size=0x4) addr:0x0204dd38
func_0204dd3c kind:function(thumb,size=0x22) addr:0x0204dd3c
func_0204dd60 kind:function(thumb,size=0x44) addr:0x0204dd60
func_0204dda4 kind:function(thumb,size=0xc) addr:0x0204dda4
func_0204ddb0 kind:function(thumb,size=0x14) addr:0x0204ddb0
func_0204ddc4 kind:function(thumb,size=0x30) addr:0x0204ddc4
func_0204ddf4 kind:function(thumb,size=0x38) addr:0x0204ddf4
func_0204de2c kind:function(thumb,size=0x24) addr:0x0204de2c
func_0204de50 kind:function(thumb,size=0x1c) addr:0x0204de50
func_0204de6c kind:function(thumb,size=0x10) addr:0x0204de6c
func_0204de7c kind:function(thumb,size=0x10) addr:0x0204de7c
func_0204de8c kind:function(thumb,size=0x68) addr:0x0204de8c
func_0204def4 kind:function(thumb,size=0x28) addr:0x0204def4
func_0204df1c kind:function(thumb,size=0x2a) addr:0x0204df1c
func_0204df48 kind:function(thumb,size=0x4c) addr:0x0204df48
func_0204df94 kind:function(thumb,size=0x2c) addr:0x0204df94
func_0204dfc0 kind:function(thumb,size=0x16) addr:0x0204dfc0
func_0204dfd8 kind:function(thumb,size=0x2c) addr:0x0204dfd8
func_0204e004 kind:function(thumb,size=0x12) addr:0x0204e004
func_0204e018 kind:function(thumb,size=0x12) addr:0x0204e018
func_0204e02c kind:function(thumb,size=0x12) addr:0x0204e02c
func_0204e040 kind:function(thumb,size=0x10) addr:0x0204e040
func_0204e050 kind:function(thumb,size=0x14) addr:0x0204e050
func_0204e064 kind:function(thumb,size=0xc) addr:0x0204e064
func_0204e070 kind:function(thumb,size=0x14) addr:0x0204e070
func_0204e084 kind:function(thumb,size=0x38) addr:0x0204e084
func_0204e0bc kind:function(thumb,size=0x2) addr:0x0204e0bc
func_0204e0c0 kind:function(thumb,size=0x2) addr:0x0204e0c0
func_0204e0c4 kind:function(thumb,size=0x27c) addr:0x0204e0c4
func_0204e340 kind:function(thumb,size=0xf0) addr:0x0204e340
func_0204e430 kind:function(thumb,size=0xc2) addr:0x0204e430
func_0204e4f4 kind:function(thumb,size=0x90) addr:0x0204e4f4
func_0204e584 kind:function(thumb,size=0x42) addr:0x0204e584
func_0204e5c8 kind:function(thumb,size=0x8) addr:0x0204e5c8
func_0204e5d0 kind:function(thumb,size=0x8) addr:0x0204e5d0
func_0204e5d8 kind:function(thumb,size=0x8) addr:0x0204e5d8
func_0204e5e0 kind:function(thumb,size=0x8) addr:0x0204e5e0
func_0204e5e8 kind:function(thumb,size=0x80) addr:0x0204e5e8
func_0204e668 kind:function(thumb,size=0x8) addr:0x0204e668
func_0204e670 kind:function(thumb,size=0x3c) addr:0x0204e670
func_0204e6ac kind:function(thumb,size=0x38) addr:0x0204e6ac
func_0204e6e4 kind:function(thumb,size=0xdc) addr:0x0204e6e4
func_0204e7c0 kind:function(thumb,size=0xb8) addr:0x0204e7c0
func_0204e878 kind:function(thumb,size=0x104) addr:0x0204e878
func_0204e97c kind:function(thumb,size=0x104) addr:0x0204e97c
func_0204ea80 kind:function(thumb,size=0x11c) addr:0x0204ea80
func_0204eb9c kind:function(thumb,size=0x9c) addr:0x0204eb9c
func_0204ec38 kind:function(thumb,size=0x88) addr:0x0204ec38
func_0204ecc0 kind:function(thumb,size=0x28) addr:0x0204ecc0
func_0204ece8 kind:function(thumb,size=0x10) addr:0x0204ece8
func_0204ecf8 kind:function(thumb,size=0xc) addr:0x0204ecf8
func_0204ed04 kind:function(thumb,size=0x2) addr:0x0204ed04
func_0204ed08 kind:function(thumb,size=0x4c) addr:0x0204ed08
func_0204ed54 kind:function(thumb,size=0x20) addr:0x0204ed54
func_0204ed74 kind:function(thumb,size=0x1e) addr:0x0204ed74
func_0204ed94 kind:function(thumb,size=0x1e) addr:0x0204ed94
func_0204edb4 kind:function(thumb,size=0x7a) addr:0x0204edb4
func_0204ee30 kind:function(thumb,size=0x200) addr:0x0204ee30
func_0204f030 kind:function(thumb,size=0x168) addr:0x0204f030
func_0204f198 kind:function(thumb,size=0x14) addr:0x0204f198
func_0204f1ac kind:function(thumb,size=0x12) addr:0x0204f1ac
func_0204f1c0 kind:function(thumb,size=0x52) addr:0x0204f1c0
func_0204f214 kind:function(thumb,size=0x4c) addr:0x0204f214
func_0204f260 kind:function(thumb,size=0x4) addr:0x0204f260
func_0204f264 kind:function(thumb,size=0xa) addr:0x0204f264
func_0204f270 kind:function(thumb,size=0x6) addr:0x0204f270
func_0204f278 kind:function(thumb,size=0x6) addr:0x0204f278
func_0204f280 kind:function(thumb,size=0x4) addr:0x0204f280
func_0204f284 kind:function(thumb,size=0xe) addr:0x0204f284
func_0204f294 kind:function(thumb,size=0x14) addr:0x0204f294
func_0204f2a8 kind:function(thumb,size=0x14) addr:0x0204f2a8
func_0204f2bc kind:function(thumb,size=0x2) addr:0x0204f2bc
func_0204f2c0 kind:function(thumb,size=0x2) addr:0x0204f2c0
func_0204f2c4 kind:function(thumb,size=0x2) addr:0x0204f2c4
func_0204f2c8 kind:function(thumb,size=0x14) addr:0x0204f2c8
func_0204f2dc kind:function(thumb,size=0x18) addr:0x0204f2dc
func_0204f2f4 kind:function(thumb,size=0x2) addr:0x0204f2f4
func_0204f2f8 kind:function(thumb,size=0x2) addr:0x0204f2f8
func_0204f2fc kind:function(thumb,size=0x1a8) addr:0x0204f2fc
func_0204f4a4 kind:function(thumb,size=0x98) addr:0x0204f4a4
func_0204f53c kind:function(thumb,size=0x4) addr:0x0204f53c
func_0204f540 kind:function(thumb,size=0x14) addr:0x0204f540
func_0204f554 kind:function(thumb,size=0x14) addr:0x0204f554
func_0204f568 kind:function(thumb,size=0x6) addr:0x0204f568
func_0204f570 kind:function(thumb,size=0x8c) addr:0x0204f570
func_0204f5fc kind:function(thumb,size=0x14) addr:0x0204f5fc
func_0204f610 kind:function(thumb,size=0x20) addr:0x0204f610
func_0204f630 kind:function(thumb,size=0x2) addr:0x0204f630
func_0204f634 kind:function(thumb,size=0x2) addr:0x0204f634
func_0204f638 kind:function(thumb,size=0x1c8) addr:0x0204f638
func_0204f800 kind:function(thumb,size=0xa) addr:0x0204f800
func_0204f80c kind:function(thumb,size=0x12) addr:0x0204f80c
func_0204f820 kind:function(thumb,size=0x8) addr:0x0204f820
func_0204f828 kind:function(thumb,size=0x4) addr:0x0204f828
func_0204f82c kind:function(thumb,size=0xd4) addr:0x0204f82c
func_0204f900 kind:function(thumb,size=0x134) addr:0x0204f900
func_0204fa34 kind:function(thumb,size=0xe0) addr:0x0204fa34
func_0204fb14 kind:function(thumb,size=0xfc) addr:0x0204fb14
func_0204fc10 kind:function(thumb,size=0xe0) addr:0x0204fc10
func_0204fcf0 kind:function(thumb,size=0xfc) addr:0x0204fcf0
func_0204fdec kind:function(thumb,size=0x40) addr:0x0204fdec
func_0204fe2c kind:function(thumb,size=0x28) addr:0x0204fe2c
func_0204fe54 kind:function(thumb,size=0x2) addr:0x0204fe54
func_0204fe58 kind:function(thumb,size=0x4) addr:0x0204fe58
func_0204fe5c kind:function(thumb,size=0xe) addr:0x0204fe5c
func_0204fe6c kind:function(thumb,size=0x4) addr:0x0204fe6c
func_0204fe70 kind:function(thumb,size=0x4) addr:0x0204fe70
func_0204fe74 kind:function(thumb,size=0x4) addr:0x0204fe74
func_0204fe78 kind:function(thumb,size=0x4) addr:0x0204fe78
func_0204fe7c kind:function(thumb,size=0x4) addr:0x0204fe7c
func_0204fe80 kind:function(thumb,size=0x1e) addr:0x0204fe80
func_0204fea0 kind:function(thumb,size=0x6) addr:0x0204fea0
func_0204fea8 kind:function(thumb,size=0x50) addr:0x0204fea8
func_0204fef8 kind:function(thumb,size=0x4c) addr:0x0204fef8
func_0204ff44 kind:function(thumb,size=0xc) addr:0x0204ff44
func_0204ff50 kind:function(thumb,size=0xac) addr:0x0204ff50
func_0204fffc kind:function(thumb,size=0x3c) addr:0x0204fffc
func_02050038 kind:function(thumb,size=0x78) addr:0x02050038
func_020500b0 kind:function(thumb,size=0x28) addr:0x020500b0
func_020500d8 kind:function(thumb,size=0x34) addr:0x020500d8
func_0205010c kind:function(thumb,size=0x28) addr:0x0205010c
func_02050134 kind:function(thumb,size=0xb8) addr:0x02050134
func_020501ec kind:function(thumb,size=0x38) addr:0x020501ec
func_02050224 kind:function(thumb,size=0x6c) addr:0x02050224
func_02050290 kind:function(thumb,size=0x54) addr:0x02050290
func_020502e4 kind:function(thumb,size=0x5c) addr:0x020502e4
func_02050340 kind:function(thumb,size=0x28) addr:0x02050340
func_02050368 kind:function(thumb,size=0x2) addr:0x02050368
func_0205036c kind:function(thumb,size=0x10) addr:0x0205036c
func_0205037c kind:function(thumb,size=0x118) addr:0x0205037c
func_02050494 kind:function(thumb,size=0xc) addr:0x02050494
func_020504a0 kind:function(thumb,size=0x34) addr:0x020504a0
func_020504d4 kind:function(thumb,size=0x2) addr:0x020504d4
func_020504d8 kind:function(thumb,size=0x28) addr:0x020504d8
func_02050500 kind:function(thumb,size=0x10c) addr:0x02050500
func_0205060c kind:function(thumb,size=0x8) addr:0x0205060c
func_02050614 kind:function(thumb,size=0x84) addr:0x02050614
func_02050698 kind:function(thumb,size=0xc) addr:0x02050698
func_020506a4 kind:function(thumb,size=0x48) addr:0x020506a4
func_020506ec kind:function(thumb,size=0x48) addr:0x020506ec
func_02050734 kind:function(thumb,size=0x48) addr:0x02050734
func_0205077c kind:function(thumb,size=0x2a) addr:0x0205077c
func_020507a8 kind:function(thumb,size=0x44) addr:0x020507a8
func_020507ec kind:function(thumb,size=0x34) addr:0x020507ec
func_02050820 kind:function(thumb,size=0x40) addr:0x02050820
func_02050860 kind:function(thumb,size=0xa0) addr:0x02050860
func_02050900 kind:function(thumb,size=0x36e) addr:0x02050900
func_02050c70 kind:function(thumb,size=0x90) addr:0x02050c70
func_02050d00 kind:function(thumb,size=0x120) addr:0x02050d00
func_02050e20 kind:function(thumb,size=0x24) addr:0x02050e20
func_02050e44 kind:function(thumb,size=0x44) addr:0x02050e44
func_02050e88 kind:function(thumb,size=0x20) addr:0x02050e88
func_02050ea8 kind:function(thumb,size=0x12) addr:0x02050ea8
func_02050ebc kind:function(thumb,size=0x12) addr:0x02050ebc
func_02050ed0 kind:function(thumb,size=0xe) addr:0x02050ed0
func_02050ee0 kind:function(thumb,size=0x3c) addr:0x02050ee0
func_02050f1c kind:function(thumb,size=0x12) addr:0x02050f1c
func_02050f30 kind:function(thumb,size=0x7d8) addr:0x02050f30
func_02051708 kind:function(thumb,size=0x14) addr:0x02051708
func_0205171c kind:function(thumb,size=0xc) addr:0x0205171c
func_02051728 kind:function(thumb,size=0xc) addr:0x02051728
func_02051734 kind:function(thumb,size=0xa) addr:0x02051734
func_02051740 kind:function(thumb,size=0x9c) addr:0x02051740
func_020517dc kind:function(thumb,size=0x50) addr:0x020517dc
func_0205182c kind:function(thumb,size=0xcc) addr:0x0205182c
func_020518f8 kind:function(thumb,size=0x6) addr:0x020518f8
func_02051900 kind:function(thumb,size=0x66) addr:0x02051900
func_02051968 kind:function(thumb,size=0xf8) addr:0x02051968
func_02051a60 kind:function(thumb,size=0x12) addr:0x02051a60
func_02051a74 kind:function(thumb,size=0x6) addr:0x02051a74
func_02051a7c kind:function(thumb,size=0xe4) addr:0x02051a7c
func_02051b60 kind:function(thumb,size=0x80) addr:0x02051b60
func_02051be0 kind:function(thumb,size=0x4) addr:0x02051be0
func_02051be4 kind:function(thumb,size=0x4) addr:0x02051be4
func_02051be8 kind:function(thumb,size=0x74) addr:0x02051be8
func_02051c5c kind:function(thumb,size=0x44) addr:0x02051c5c
func_02051ca0 kind:function(thumb,size=0x44) addr:0x02051ca0
func_02051ce4 kind:function(thumb,size=0x5c) addr:0x02051ce4
func_02051d40 kind:function(thumb,size=0x8c) addr:0x02051d40
func_02051dcc kind:function(thumb,size=0x90) addr:0x02051dcc
func_02051e5c kind:function(thumb,size=0x74) addr:0x02051e5c
func_02051ed0 kind:function(thumb,size=0x74) addr:0x02051ed0
func_02051f44 kind:function(thumb,size=0x84) addr:0x02051f44
func_02051fc8 kind:function(thumb,size=0x90) addr:0x02051fc8
func_02052058 kind:function(thumb,size=0x68) addr:0x02052058
func_020520c0 kind:function(thumb,size=0x70) addr:0x020520c0
func_02052130 kind:function(thumb,size=0x34) addr:0x02052130
func_02052164 kind:function(thumb,size=0x74) addr:0x02052164
func_020521d8 kind:function(thumb,size=0x1c) addr:0x020521d8
func_020521f4 kind:function(thumb,size=0x14) addr:0x020521f4
func_02052208 kind:function(thumb,size=0x18) addr:0x02052208
func_02052220 kind:function(thumb,size=0xd8) addr:0x02052220
func_020522f8 kind:function(thumb,size=0x18) addr:0x020522f8
func_02052310 kind:function(thumb,size=0x14) addr:0x02052310
func_02052324 kind:function(thumb,size=0x10) addr:0x02052324
func_02052334 kind:function(thumb,size=0x14) addr:0x02052334
func_02052348 kind:function(thumb,size=0xc) addr:0x02052348
func_02052354 kind:function(thumb,size=0x10) addr:0x02052354
func_02052364 kind:function(thumb,size=0x1c) addr:0x02052364
func_02052380 kind:function(thumb,size=0x14) addr:0x02052380
func_02052394 kind:function(thumb,size=0x20) addr:0x02052394
func_020523b4 kind:function(arm,size=0x4) addr:0x020523b4
func_020523b8 kind:function(thumb,size=0x14) addr:0x020523b8
func_020523cc kind:function(arm,size=0x4) addr:0x020523cc
func_020523d0 kind:function(thumb,size=0x10) addr:0x020523d0
func_020523e0 kind:function(arm,size=0x4) addr:0x020523e0
func_020523e4 kind:function(thumb,size=0x18) addr:0x020523e4
func_020523fc kind:function(arm,size=0x4) addr:0x020523fc
func_02052400 kind:function(thumb,size=0x8) addr:0x02052400
func_02052408 kind:function(thumb,size=0x12) addr:0x02052408
func_0205241c kind:function(thumb,size=0x8) addr:0x0205241c
func_02052424 kind:function(arm,size=0xc) addr:0x02052424
func_02052430 kind:function(arm,size=0x10) addr:0x02052430
func_02052440 kind:function(arm,size=0x10) addr:0x02052440
func_02052450 kind:function(arm,size=0x4) addr:0x02052450
func_02052454 kind:function(arm,size=0x10) addr:0x02052454
func_02052464 kind:function(arm,size=0x14) addr:0x02052464
func_02052478 kind:function(arm,size=0x10) addr:0x02052478
func_02052488 kind:function(thumb,size=0x14) addr:0x02052488
func_0205249c kind:function(thumb,size=0x24) addr:0x0205249c
func_020524c0 kind:function(thumb,size=0x10) addr:0x020524c0
func_020524d0 kind:function(thumb,size=0x2) addr:0x020524d0
func_020524d4 kind:function(thumb,size=0x120) addr:0x020524d4
func_020525f4 kind:function(thumb,size=0x18) addr:0x020525f4
func_0205260c kind:function(thumb,size=0x4c) addr:0x0205260c
func_02052658 kind:function(thumb,size=0x3a) addr:0x02052658
func_02052694 kind:function(thumb,size=0xa) addr:0x02052694
func_020526a0 kind:function(thumb,size=0x18) addr:0x020526a0
func_020526b8 kind:function(thumb,size=0x28) addr:0x020526b8
func_020526e0 kind:function(thumb,size=0x28) addr:0x020526e0
func_02052708 kind:function(thumb,size=0x36) addr:0x02052708
func_02052740 kind:function(thumb,size=0x30) addr:0x02052740
func_02052770 kind:function(thumb,size=0x22) addr:0x02052770
func_02052794 kind:function(thumb,size=0x26) addr:0x02052794
func_020527bc kind:function(thumb,size=0x16) addr:0x020527bc
func_020527d4 kind:function(thumb,size=0x1a) addr:0x020527d4
func_020527f0 kind:function(thumb,size=0x14) addr:0x020527f0
func_02052804 kind:function(thumb,size=0x56) addr:0x02052804
func_0205285c kind:function(thumb,size=0x2) addr:0x0205285c
func_02052860 kind:function(thumb,size=0x2) addr:0x02052860
func_02052864 kind:function(thumb,size=0x1c0) addr:0x02052864
func_02052a24 kind:function(thumb,size=0x2) addr:0x02052a24
func_02052a28 kind:function(thumb,size=0x7c) addr:0x02052a28
func_02052aa4 kind:function(thumb,size=0x8) addr:0x02052aa4
func_02052aac kind:function(arm,size=0xd0) addr:0x02052aac
func_02052b7c kind:function(arm,size=0xd4) addr:0x02052b7c
func_02052c50 kind:function(arm,size=0x118) addr:0x02052c50
func_02052d68 kind:function(arm,size=0x2d8) addr:0x02052d68
func_02053040 kind:function(arm,size=0x238) addr:0x02053040
func_02053278 kind:function(arm,size=0xf4) addr:0x02053278
func_0205336c kind:function(arm,size=0xec) addr:0x0205336c
func_02053458 kind:function(arm,size=0x9c) addr:0x02053458
func_020534f4 kind:function(arm,size=0x30) addr:0x020534f4
func_02053524 kind:function(arm,size=0x388) addr:0x02053524
func_020538ac kind:function(arm,size=0x210) addr:0x020538ac
func_02053abc kind:function(arm,size=0x40) addr:0x02053abc
func_02053afc kind:function(thumb,size=0x18) addr:0x02053afc
func_02053b14 kind:function(thumb,size=0x18) addr:0x02053b14
func_02053b2c kind:function(thumb,size=0x18) addr:0x02053b2c
func_02053b44 kind:function(thumb,size=0x1c0) addr:0x02053b44
func_02053d04 kind:function(thumb,size=0x12) addr:0x02053d04
func_02053d18 kind:function(thumb,size=0xc) addr:0x02053d18
func_02053d24 kind:function(thumb,size=0xa) addr:0x02053d24
func_02053d30 kind:function(thumb,size=0x18) addr:0x02053d30
func_02053d48 kind:function(thumb,size=0x18) addr:0x02053d48
func_02053d60 kind:function(thumb,size=0x5a) addr:0x02053d60
func_02053dbc kind:function(thumb,size=0x48) addr:0x02053dbc
func_02053e04 kind:function(thumb,size=0xfa) addr:0x02053e04
func_02053f00 kind:function(thumb,size=0x3a) addr:0x02053f00
func_02053f3c kind:function(thumb,size=0x38) addr:0x02053f3c
func_02053f74 kind:function(thumb,size=0x1c) addr:0x02053f74
func_02053f90 kind:function(thumb,size=0x80) addr:0x02053f90
func_02054010 kind:function(thumb,size=0x7c) addr:0x02054010
func_0205408c kind:function(thumb,size=0xa2) addr:0x0205408c
func_02054130 kind:function(thumb,size=0x46) addr:0x02054130
func_02054178 kind:function(thumb,size=0x108) addr:0x02054178
func_02054280 kind:function(thumb,size=0x80) addr:0x02054280
func_02054300 kind:function(thumb,size=0x20) addr:0x02054300
func_02054320 kind:function(thumb,size=0x24) addr:0x02054320
func_02054344 kind:function(thumb,size=0x20) addr:0x02054344
func_02054364 kind:function(thumb,size=0x1c) addr:0x02054364
func_02054380 kind:function(thumb,size=0x1c) addr:0x02054380
func_0205439c kind:function(thumb,size=0x1c) addr:0x0205439c
func_020543b8 kind:function(thumb,size=0x1c) addr:0x020543b8
func_020543d4 kind:function(thumb,size=0x1c) addr:0x020543d4
func_020543f0 kind:function(thumb,size=0x1c) addr:0x020543f0
func_0205440c kind:function(thumb,size=0x10) addr:0x0205440c
func_0205441c kind:function(thumb,size=0x10) addr:0x0205441c
func_0205442c kind:function(thumb,size=0x64) addr:0x0205442c
func_02054490 kind:function(thumb,size=0xc) addr:0x02054490
func_0205449c kind:function(thumb,size=0xb8) addr:0x0205449c
func_02054554 kind:function(thumb,size=0xa8) addr:0x02054554
func_020545fc kind:function(thumb,size=0x20) addr:0x020545fc
func_0205461c kind:function(thumb,size=0x10) addr:0x0205461c
func_0205462c kind:function(thumb,size=0x14) addr:0x0205462c
func_02054640 kind:function(thumb,size=0x50) addr:0x02054640
func_02054690 kind:function(thumb,size=0x2) addr:0x02054690
func_02054694 kind:function(thumb,size=0x15c) addr:0x02054694
func_020547f0 kind:function(thumb,size=0x2) addr:0x020547f0
func_020547f4 kind:function(thumb,size=0x88) addr:0x020547f4
func_0205487c kind:function(thumb,size=0x8) addr:0x0205487c
func_02054884 kind:function(thumb,size=0x2) addr:0x02054884
func_02054888 kind:function(thumb,size=0x2) addr:0x02054888
func_0205488c kind:function(thumb,size=0xe4) addr:0x0205488c
func_02054970 kind:function(thumb,size=0x14) addr:0x02054970
func_02054984 kind:function(thumb,size=0x14) addr:0x02054984
func_02054998 kind:function(thumb,size=0x10) addr:0x02054998
func_020549a8 kind:function(thumb,size=0x10) addr:0x020549a8
func_020549b8 kind:function(thumb,size=0x14) addr:0x020549b8
func_020549cc kind:function(thumb,size=0x24) addr:0x020549cc
func_020549f0 kind:function(thumb,size=0x30) addr:0x020549f0
func_02054a20 kind:function(thumb,size=0xc) addr:0x02054a20
func_02054a2c kind:function(thumb,size=0x1c) addr:0x02054a2c
func_02054a48 kind:function(thumb,size=0x24) addr:0x02054a48
func_02054a6c kind:function(thumb,size=0x16) addr:0x02054a6c
func_02054a84 kind:function(thumb,size=0x238) addr:0x02054a84
func_02054cbc kind:function(thumb,size=0x534) addr:0x02054cbc
func_020551f0 kind:function(thumb,size=0xc) addr:0x020551f0
func_020551fc kind:function(thumb,size=0x20) addr:0x020551fc
func_0205521c kind:function(thumb,size=0x10) addr:0x0205521c
func_0205522c kind:function(thumb,size=0x54) addr:0x0205522c
func_02055280 kind:function(thumb,size=0x144) addr:0x02055280
func_020553c4 kind:function(thumb,size=0x72) addr:0x020553c4
func_02055438 kind:function(thumb,size=0x68) addr:0x02055438
func_020554a0 kind:function(thumb,size=0xc) addr:0x020554a0
func_020554ac kind:function(thumb,size=0x40) addr:0x020554ac
func_020554ec kind:function(thumb,size=0x24) addr:0x020554ec
func_02055510 kind:function(thumb,size=0x14) addr:0x02055510
func_02055524 kind:function(thumb,size=0xe0) addr:0x02055524
func_02055604 kind:function(thumb,size=0x13a) addr:0x02055604
func_02055740 kind:function(thumb,size=0x8c) addr:0x02055740
func_020557cc kind:function(thumb,size=0x2c) addr:0x020557cc
func_020557f8 kind:function(thumb,size=0x18) addr:0x020557f8
func_02055810 kind:function(thumb,size=0x38) addr:0x02055810
func_02055848 kind:function(thumb,size=0x4c) addr:0x02055848
func_02055894 kind:function(thumb,size=0x38) addr:0x02055894
func_020558cc kind:function(thumb,size=0x40) addr:0x020558cc
func_0205590c kind:function(arm,size=0x40) addr:0x0205590c
func_0205594c kind:function(arm,size=0x1c) addr:0x0205594c
func_02055968 kind:function(arm,size=0x18) addr:0x02055968
func_02055980 kind:function(arm,size=0x18) addr:0x02055980
func_02055998 kind:function(arm,size=0x18) addr:0x02055998
func_020559b0 kind:function(arm,size=0x1c) addr:0x020559b0
func_020559cc kind:function(arm,size=0x20) addr:0x020559cc
func_020559ec kind:function(arm,size=0x18) addr:0x020559ec
func_02055a04 kind:function(arm,size=0x30) addr:0x02055a04
func_02055a34 kind:function(arm,size=0x18) addr:0x02055a34
func_02055a4c kind:function(arm,size=0x14) addr:0x02055a4c
func_02055a60 kind:function(arm,size=0x18) addr:0x02055a60
func_02055a78 kind:function(arm,size=0x18) addr:0x02055a78
func_02055a90 kind:function(thumb,size=0x14) addr:0x02055a90
func_02055aa4 kind:function(thumb,size=0x26) addr:0x02055aa4
func_02055acc kind:function(thumb,size=0x2) addr:0x02055acc
func_02055ad0 kind:function(thumb,size=0x2) addr:0x02055ad0
func_02055ad4 kind:function(thumb,size=0x78) addr:0x02055ad4
func_02055b4c kind:function(thumb,size=0xfc) addr:0x02055b4c
func_02055c48 kind:function(thumb,size=0x180) addr:0x02055c48
func_02055dc8 kind:function(thumb,size=0xa) addr:0x02055dc8
func_02055dd4 kind:function(thumb,size=0x8) addr:0x02055dd4
func_02055ddc kind:function(thumb,size=0x22) addr:0x02055ddc
func_02055e00 kind:function(thumb,size=0x8) addr:0x02055e00
func_02055e08 kind:function(thumb,size=0x1c) addr:0x02055e08
func_02055e24 kind:function(thumb,size=0x34) addr:0x02055e24
func_02055e58 kind:function(thumb,size=0x9c) addr:0x02055e58
func_02055ef4 kind:function(thumb,size=0x12) addr:0x02055ef4
func_02055f08 kind:function(thumb,size=0x14) addr:0x02055f08
func_02055f1c kind:function(thumb,size=0x20) addr:0x02055f1c
func_02055f3c kind:function(thumb,size=0x1c) addr:0x02055f3c
func_02055f58 kind:function(thumb,size=0x2) addr:0x02055f58
func_02055f5c kind:function(thumb,size=0x32) addr:0x02055f5c
func_02055f90 kind:function(thumb,size=0x2a) addr:0x02055f90
func_02055fbc kind:function(thumb,size=0x6c) addr:0x02055fbc
func_02056028 kind:function(thumb,size=0x18) addr:0x02056028
func_02056040 kind:function(thumb,size=0x34) addr:0x02056040
func_02056074 kind:function(thumb,size=0x8) addr:0x02056074
func_0205607c kind:function(thumb,size=0x3c) addr:0x0205607c
func_020560b8 kind:function(thumb,size=0x94) addr:0x020560b8
func_0205614c kind:function(thumb,size=0x14) addr:0x0205614c
func_02056160 kind:function(thumb,size=0x14) addr:0x02056160
func_02056174 kind:function(thumb,size=0x10) addr:0x02056174
func_02056184 kind:function(thumb,size=0x10) addr:0x02056184
func_02056194 kind:function(thumb,size=0x16c) addr:0x02056194
func_02056300 kind:function(thumb,size=0x28) addr:0x02056300
func_02056328 kind:function(thumb,size=0x30) addr:0x02056328
func_02056358 kind:function(thumb,size=0x2c) addr:0x02056358
func_02056384 kind:function(thumb,size=0x30) addr:0x02056384
func_020563b4 kind:function(thumb,size=0x1c) addr:0x020563b4
func_020563d0 kind:function(arm,size=0x6c) addr:0x020563d0
func_0205643c kind:function(arm,size=0x20) addr:0x0205643c
func_0205645c kind:function(arm,size=0x6c) addr:0x0205645c
func_020564c8 kind:function(arm,size=0x28) addr:0x020564c8
func_020564f0 kind:function(arm,size=0x28) addr:0x020564f0
func_02056518 kind:function(arm,size=0x98) addr:0x02056518
func_020565b0 kind:function(arm,size=0x54) addr:0x020565b0
func_02056604 kind:function(arm,size=0x18) addr:0x02056604
func_0205661c kind:function(arm,size=0x28) addr:0x0205661c
func_02056644 kind:function(arm,size=0x64) addr:0x02056644
func_020566a8 kind:function(arm,size=0x4) addr:0x020566a8
func_020566ac kind:function(arm,size=0x2c) addr:0x020566ac
func_020566d8 kind:function(arm,size=0x4) addr:0x020566d8
func_020566dc kind:function(arm,size=0x4c) addr:0x020566dc
func_02056728 kind:function(arm,size=0x18) addr:0x02056728
func_02056740 kind:function(arm,size=0x14) addr:0x02056740
func_02056754 kind:function(arm,size=0x30) addr:0x02056754
func_02056784 kind:function(arm,size=0x20) addr:0x02056784
func_020567a4 kind:function(arm,size=0xa4) addr:0x020567a4
func_02056848 kind:function(arm,size=0x50) addr:0x02056848
func_02056898 kind:function(arm,size=0x44) addr:0x02056898
func_020568dc kind:function(arm,size=0x2c) addr:0x020568dc
func_02056908 kind:function(arm,size=0x38) addr:0x02056908
func_02056940 kind:function(arm,size=0x20) addr:0x02056940
func_02056960 kind:function(arm,size=0x38) addr:0x02056960
func_02056998 kind:function(arm,size=0x20) addr:0x02056998
func_020569b8 kind:function(arm,size=0xe0) addr:0x020569b8
func_02056a98 kind:function(arm,size=0x68) addr:0x02056a98
func_02056b00 kind:function(thumb,size=0x48) addr:0x02056b00
func_02056b48 kind:function(thumb,size=0x8) addr:0x02056b48
func_02056b50 kind:function(thumb,size=0xcc) addr:0x02056b50
func_02056c1c kind:function(thumb,size=0x78) addr:0x02056c1c
func_02056c94 kind:function(thumb,size=0x32) addr:0x02056c94
func_02056cc8 kind:function(thumb,size=0x23a) addr:0x02056cc8
func_02056f04 kind:function(thumb,size=0x24) addr:0x02056f04
func_02056f28 kind:function(thumb,size=0x20) addr:0x02056f28
func_02056f48 kind:function(thumb,size=0x32) addr:0x02056f48
func_02056f7c kind:function(thumb,size=0xc) addr:0x02056f7c
func_02056f88 kind:function(arm,size=0x78) addr:0x02056f88
func_02057000 kind:function(arm,size=0x10c) addr:0x02057000
func_0205710c kind:function(arm,size=0x1c) addr:0x0205710c
func_02057128 kind:function(arm,size=0x24) addr:0x02057128
func_0205714c kind:function(arm,size=0x68) addr:0x0205714c
func_020571b4 kind:function(arm,size=0x10) addr:0x020571b4
func_020571c4 kind:function(arm,size=0x20) addr:0x020571c4
func_020571e4 kind:function(arm,size=0xc) addr:0x020571e4
func_020571f0 kind:function(arm,size=0xc) addr:0x020571f0
func_020571fc kind:function(arm,size=0x20) addr:0x020571fc
func_0205721c kind:function(arm,size=0x18) addr:0x0205721c
func_02057234 kind:function(arm,size=0x38) addr:0x02057234
func_0205726c kind:function(arm,size=0xfc) addr:0x0205726c
func_02057368 kind:function(arm,size=0x5c) addr:0x02057368
func_020573c4 kind:function(arm,size=0x1c) addr:0x020573c4
func_020573e0 kind:function(arm,size=0x1c) addr:0x020573e0
func_020573fc kind:function(arm,size=0x4) addr:0x020573fc
func_02057400 kind:function(arm,size=0x4) addr:0x02057400
func_02057404 kind:function(arm,size=0x54) addr:0x02057404
func_02057458 kind:function(arm,size=0x1c) addr:0x02057458
func_02057474 kind:function(arm,size=0x48) addr:0x02057474
func_020574bc kind:function(arm,size=0x8) addr:0x020574bc
func_020574c4 kind:function(arm,size=0x8) addr:0x020574c4
func_020574cc kind:function(arm,size=0x90) addr:0x020574cc
func_0205755c kind:function(arm,size=0x1c) addr:0x0205755c
func_02057578 kind:function(arm,size=0xe8) addr:0x02057578
func_02057660 kind:function(arm,size=0x20) addr:0x02057660
func_02057680 kind:function(arm,size=0x4) addr:0x02057680
func_02057684 kind:function(arm,size=0x38) addr:0x02057684
func_020576bc kind:function(arm,size=0x30) addr:0x020576bc
func_020576ec kind:function(arm,size=0x17c) addr:0x020576ec
func_02057868 kind:function(arm,size=0x24) addr:0x02057868
func_0205788c kind:function(arm,size=0x24) addr:0x0205788c
func_020578b0 kind:function(arm,size=0x24) addr:0x020578b0
func_020578d4 kind:function(arm,size=0x8c) addr:0x020578d4
func_02057960 kind:function(arm,size=0x4) addr:0x02057960
func_02057964 kind:function(arm,size=0x224) addr:0x02057964
func_02057b88 kind:function(arm,size=0x8c) addr:0x02057b88
func_02057c14 kind:function(arm,size=0x4) addr:0x02057c14
func_02057c18 kind:function(arm,size=0xc4) addr:0x02057c18
func_02057cdc kind:function(arm,size=0x28) addr:0x02057cdc
func_02057d04 kind:function(arm,size=0x18) addr:0x02057d04
func_02057d1c kind:function(arm,size=0x10) addr:0x02057d1c
func_02057d2c kind:function(arm,size=0x14) addr:0x02057d2c
func_02057d40 kind:function(arm,size=0x10) addr:0x02057d40
func_02057d50 kind:function(arm,size=0x10) addr:0x02057d50
func_02057d60 kind:function(arm,size=0x28) addr:0x02057d60
func_02057d88 kind:function(arm,size=0x24) addr:0x02057d88
func_02057dac kind:function(arm,size=0x88) addr:0x02057dac
func_02057e34 kind:function(arm,size=0x24) addr:0x02057e34
func_02057e58 kind:function(arm,size=0x1c) addr:0x02057e58
func_02057e74 kind:function(arm,size=0x14) addr:0x02057e74
func_02057e88 kind:function(arm,size=0x10) addr:0x02057e88
func_02057e98 kind:function(arm,size=0x10) addr:0x02057e98
func_02057ea8 kind:function(arm,size=0x18) addr:0x02057ea8
func_02057ec0 kind:function(arm,size=0x14) addr:0x02057ec0
func_02057ed4 kind:function(arm,size=0x8) addr:0x02057ed4
func_02057edc kind:function(arm,size=0xc) addr:0x02057edc
func_02057ee8 kind:function(arm,size=0xc) addr:0x02057ee8
func_02057ef4 kind:function(arm,size=0xc) addr:0x02057ef4
func_02057f00 kind:function(arm,size=0x18) addr:0x02057f00
func_02057f18 kind:function(arm,size=0x18) addr:0x02057f18
func_02057f30 kind:function(arm,size=0x8) addr:0x02057f30
func_02057f38 kind:function(arm,size=0x8) addr:0x02057f38
func_02057f40 kind:function(arm,size=0x10) addr:0x02057f40
func_02057f50 kind:function(arm,size=0x8) addr:0x02057f50
func_02057f58 kind:function(arm,size=0x28) addr:0x02057f58
func_02057f80 kind:function(arm,size=0xc) addr:0x02057f80
func_02057f8c kind:function(arm,size=0x38) addr:0x02057f8c
func_02057fc4 kind:function(arm,size=0x24) addr:0x02057fc4
func_02057fe8 kind:function(arm,size=0x28) addr:0x02057fe8
func_02058010 kind:function(arm,size=0x4) addr:0x02058010
func_02058014 kind:function(arm,size=0xa8) addr:0x02058014
func_020580bc kind:function(arm,size=0x40) addr:0x020580bc
func_020580fc kind:function(arm,size=0x8) addr:0x020580fc
func_02058104 kind:function(arm,size=0x8) addr:0x02058104
func_0205810c kind:function(arm,size=0x8) addr:0x0205810c
func_02058114 kind:function(arm,size=0x14) addr:0x02058114
func_02058128 kind:function(arm,size=0x10) addr:0x02058128
func_02058138 kind:function(arm,size=0x10) addr:0x02058138
func_02058148 kind:function(arm,size=0x14) addr:0x02058148
func_0205815c kind:function(arm,size=0x2c) addr:0x0205815c
func_02058188 kind:function(arm,size=0x38) addr:0x02058188
func_020581c0 kind:function(arm,size=0x4) addr:0x020581c0
func_020581c4 kind:function(arm,size=0x4) addr:0x020581c4
func_020581c8 kind:function(arm,size=0x4) addr:0x020581c8
func_020581cc kind:function(arm,size=0x4) addr:0x020581cc
func_020581d0 kind:function(arm,size=0x4) addr:0x020581d0
func_020581d4 kind:function(arm,size=0x1c) addr:0x020581d4
func_020581f0 kind:function(arm,size=0x4) addr:0x020581f0
func_020581f4 kind:function(arm,size=0x50) addr:0x020581f4
func_02058244 kind:function(arm,size=0x50) addr:0x02058244
func_02058294 kind:function(arm,size=0x24) addr:0x02058294
func_020582b8 kind:function(arm,size=0x28) addr:0x020582b8
func_020582e0 kind:function(arm,size=0x18) addr:0x020582e0
func_020582f8 kind:function(arm,size=0x18) addr:0x020582f8
func_02058310 kind:function(arm,size=0x18) addr:0x02058310
func_02058328 kind:function(arm,size=0x50) addr:0x02058328
func_02058378 kind:function(arm,size=0x8) addr:0x02058378
func_02058380 kind:function(arm,size=0x8) addr:0x02058380
func_02058388 kind:function(arm,size=0x8) addr:0x02058388
func_02058390 kind:function(arm,size=0xc) addr:0x02058390
func_0205839c kind:function(arm,size=0xc) addr:0x0205839c
func_020583a8 kind:function(arm,size=0x28) addr:0x020583a8
func_020583d0 kind:function(arm,size=0x60) addr:0x020583d0
func_02058430 kind:function(arm,size=0x18) addr:0x02058430
func_02058448 kind:function(arm,size=0x7c) addr:0x02058448
func_020584c4 kind:function(arm,size=0xa4) addr:0x020584c4
func_02058568 kind:function(arm,size=0x58) addr:0x02058568
func_020585c0 kind:function(arm,size=0x18) addr:0x020585c0
func_020585d8 kind:function(arm,size=0x68) addr:0x020585d8
func_02058640 kind:function(arm,size=0x40) addr:0x02058640
func_02058680 kind:function(arm,size=0x44) addr:0x02058680
func_020586c4 kind:function(arm,size=0x10) addr:0x020586c4
func_020586d4 kind:function(arm,size=0x14) addr:0x020586d4
func_020586e8 kind:function(arm,size=0x80) addr:0x020586e8
func_02058768 kind:function(arm,size=0x5c) addr:0x02058768
func_020587c4 kind:function(arm,size=0x10) addr:0x020587c4
func_020587d4 kind:function(arm,size=0xa8) addr:0x020587d4
func_0205887c kind:function(arm,size=0x7c) addr:0x0205887c
func_020588f8 kind:function(arm,size=0xac) addr:0x020588f8
func_020589a4 kind:function(arm,size=0x88) addr:0x020589a4
func_02058a2c kind:function(arm,size=0x58) addr:0x02058a2c
func_02058a84 kind:function(arm,size=0x70) addr:0x02058a84
func_02058af4 kind:function(arm,size=0x94) addr:0x02058af4
func_02058b88 kind:function(arm,size=0x44) addr:0x02058b88
func_02058bcc kind:function(arm,size=0x44) addr:0x02058bcc
func_02058c10 kind:function(arm,size=0x2c) addr:0x02058c10
func_02058c3c kind:function(arm,size=0x8) addr:0x02058c3c
func_02058c44 kind:function(arm,size=0x8) addr:0x02058c44
func_02058c4c kind:function(arm,size=0xc) addr:0x02058c4c
func_02058c58 kind:function(arm,size=0xc) addr:0x02058c58
func_02058c64 kind:function(arm,size=0xc) addr:0x02058c64
func_02058c70 kind:function(arm,size=0x8) addr:0x02058c70
func_02058c78 kind:function(arm,size=0x8) addr:0x02058c78
func_02058c80 kind:function(arm,size=0x8) addr:0x02058c80
func_02058c88 kind:function(arm,size=0x8) addr:0x02058c88
func_02058c90 kind:function(arm,size=0xc) addr:0x02058c90
func_02058c9c kind:function(arm,size=0x14) addr:0x02058c9c
func_02058cb0 kind:function(arm,size=0x14) addr:0x02058cb0
func_02058cc4 kind:function(arm,size=0x14) addr:0x02058cc4
func_02058cd8 kind:function(arm,size=0x4) addr:0x02058cd8
func_02058cdc kind:function(arm,size=0x20) addr:0x02058cdc
func_02058cfc kind:function(arm,size=0x4) addr:0x02058cfc
func_02058d00 kind:function(arm,size=0xcc) addr:0x02058d00
func_02058dcc kind:function(arm,size=0x14) addr:0x02058dcc
func_02058de0 kind:function(arm,size=0x4) addr:0x02058de0
func_02058de4 kind:function(arm,size=0x20) addr:0x02058de4
func_02058e04 kind:function(arm,size=0x28) addr:0x02058e04
func_02058e2c kind:function(arm,size=0xc) addr:0x02058e2c
func_02058e38 kind:function(arm,size=0x10) addr:0x02058e38
func_02058e48 kind:function(arm,size=0x10) addr:0x02058e48
func_02058e58 kind:function(arm,size=0x10) addr:0x02058e58
func_02058e68 kind:function(arm,size=0x10) addr:0x02058e68
func_02058e78 kind:function(arm,size=0x10) addr:0x02058e78
func_02058e88 kind:function(arm,size=0x10) addr:0x02058e88
func_02058e98 kind:function(arm,size=0xc) addr:0x02058e98
func_02058ea4 kind:function(arm,size=0x5c) addr:0x02058ea4
func_02058f00 kind:function(arm,size=0x20) addr:0x02058f00
func_02058f20 kind:function(arm,size=0x50) addr:0x02058f20
func_02058f70 kind:function(arm,size=0x8) addr:0x02058f70
func_02058f78 kind:function(arm,size=0x8) addr:0x02058f78
func_02058f80 kind:function(arm,size=0x1c) addr:0x02058f80
func_02058f9c kind:function(arm,size=0x2fc) addr:0x02058f9c
func_02059298 kind:function(arm,size=0x68) addr:0x02059298
func_02059300 kind:function(arm,size=0x10) addr:0x02059300
func_02059310 kind:function(arm,size=0x18) addr:0x02059310
func_02059328 kind:function(arm,size=0x14) addr:0x02059328
func_0205933c kind:function(arm,size=0x14) addr:0x0205933c
func_02059350 kind:function(arm,size=0x10) addr:0x02059350
func_02059360 kind:function(arm,size=0x28) addr:0x02059360
func_02059388 kind:function(arm,size=0x74) addr:0x02059388
func_020593fc kind:function(arm,size=0x50) addr:0x020593fc
func_0205944c kind:function(arm,size=0x14) addr:0x0205944c
func_02059460 kind:function(arm,size=0x18) addr:0x02059460
func_02059478 kind:function(arm,size=0x14) addr:0x02059478
func_0205948c kind:function(arm,size=0x18) addr:0x0205948c
func_020594a4 kind:function(arm,size=0x14) addr:0x020594a4
func_020594b8 kind:function(arm,size=0xd0) addr:0x020594b8
func_02059588 kind:function(arm,size=0x134) addr:0x02059588
func_020596bc kind:function(arm,size=0x10) addr:0x020596bc
func_020596cc kind:function(arm,size=0x280) addr:0x020596cc
func_0205994c kind:function(arm,size=0x218) addr:0x0205994c
func_02059b64 kind:function(arm,size=0x68) addr:0x02059b64
func_02059bcc kind:function(arm,size=0x9c) addr:0x02059bcc
func_02059c68 kind:function(arm,size=0x194) addr:0x02059c68
func_02059dfc kind:function(arm,size=0x230) addr:0x02059dfc
func_0205a02c kind:function(arm,size=0x10) addr:0x0205a02c
func_0205a03c kind:function(arm,size=0x30) addr:0x0205a03c
func_0205a06c kind:function(arm,size=0x38) addr:0x0205a06c
func_0205a0a4 kind:function(arm,size=0x28) addr:0x0205a0a4
func_0205a0cc kind:function(arm,size=0x14) addr:0x0205a0cc
func_0205a0e0 kind:function(arm,size=0x8) addr:0x0205a0e0
func_0205a0e8 kind:function(arm,size=0x20) addr:0x0205a0e8
func_0205a108 kind:function(arm,size=0x12c) addr:0x0205a108
func_0205a234 kind:function(arm,size=0xc) addr:0x0205a234
func_0205a240 kind:function(arm,size=0x17c) addr:0x0205a240
func_0205a3bc kind:function(arm,size=0xf4) addr:0x0205a3bc
func_0205a4b0 kind:function(arm,size=0xec) addr:0x0205a4b0
func_0205a59c kind:function(arm,size=0x104) addr:0x0205a59c
func_0205a6a0 kind:function(arm,size=0x104) addr:0x0205a6a0
func_0205a7a4 kind:function(arm,size=0x114) addr:0x0205a7a4
func_0205a8b8 kind:function(arm,size=0x64) addr:0x0205a8b8
func_0205a91c kind:function(arm,size=0x3c) addr:0x0205a91c
func_0205a958 kind:function(arm,size=0xcc) addr:0x0205a958
func_0205aa24 kind:function(arm,size=0x68) addr:0x0205aa24
func_0205aa8c kind:function(arm,size=0x494) addr:0x0205aa8c
func_0205af20 kind:function(arm,size=0x200) addr:0x0205af20
func_0205b120 kind:function(arm,size=0x64) addr:0x0205b120
func_0205b184 kind:function(arm,size=0x34) addr:0x0205b184
func_0205b1b8 kind:function(arm,size=0x14) addr:0x0205b1b8
func_0205b1cc kind:function(arm,size=0x14) addr:0x0205b1cc
func_0205b1e0 kind:function(arm,size=0x1c) addr:0x0205b1e0
func_0205b1fc kind:function(arm,size=0x9c) addr:0x0205b1fc
func_0205b298 kind:function(arm,size=0x58) addr:0x0205b298
func_0205b2f0 kind:function(arm,size=0x78) addr:0x0205b2f0
func_0205b368 kind:function(arm,size=0x1c) addr:0x0205b368
func_0205b384 kind:function(arm,size=0x1c) addr:0x0205b384
func_0205b3a0 kind:function(arm,size=0x30) addr:0x0205b3a0
func_0205b3d0 kind:function(arm,size=0x7c) addr:0x0205b3d0
func_0205b44c kind:function(arm,size=0xc8) addr:0x0205b44c
func_0205b514 kind:function(arm,size=0x70) addr:0x0205b514
func_0205b584 kind:function(arm,size=0xa4) addr:0x0205b584
func_0205b628 kind:function(arm,size=0x20) addr:0x0205b628
func_0205b648 kind:function(arm,size=0x10) addr:0x0205b648
func_0205b658 kind:function(arm,size=0x20) addr:0x0205b658
func_0205b678 kind:function(arm,size=0x4) addr:0x0205b678
func_0205b67c kind:function(arm,size=0x10) addr:0x0205b67c
func_0205b68c kind:function(arm,size=0x10) addr:0x0205b68c
func_0205b69c kind:function(arm,size=0x10) addr:0x0205b69c
func_0205b6ac kind:function(arm,size=0x10) addr:0x0205b6ac
func_0205b6bc kind:function(arm,size=0x10) addr:0x0205b6bc
func_0205b6cc kind:function(arm,size=0x170) addr:0x0205b6cc
func_0205b83c kind:function(arm,size=0x18) addr:0x0205b83c
func_0205b854 kind:function(arm,size=0x74) addr:0x0205b854
func_0205b8c8 kind:function(arm,size=0x30) addr:0x0205b8c8
func_0205b8f8 kind:function(arm,size=0x14) addr:0x0205b8f8
func_0205b90c kind:function(arm,size=0x24) addr:0x0205b90c
func_0205b930 kind:function(arm,size=0x18) addr:0x0205b930
func_0205b948 kind:function(arm,size=0x18) addr:0x0205b948
func_0205b960 kind:function(arm,size=0x3c) addr:0x0205b960
func_0205b99c kind:function(arm,size=0x20) addr:0x0205b99c
func_0205b9bc kind:function(arm,size=0x20) addr:0x0205b9bc
func_0205b9dc kind:function(arm,size=0x20) addr:0x0205b9dc
func_0205b9fc kind:function(arm,size=0x14) addr:0x0205b9fc
func_0205ba10 kind:function(arm,size=0x34) addr:0x0205ba10
func_0205ba44 kind:function(arm,size=0x18) addr:0x0205ba44
func_0205ba5c kind:function(arm,size=0x8) addr:0x0205ba5c
func_0205ba64 kind:function(arm,size=0x18) addr:0x0205ba64
func_0205ba7c kind:function(arm,size=0x54) addr:0x0205ba7c
func_0205bad0 kind:function(arm,size=0x4) addr:0x0205bad0
func_0205bad4 kind:function(arm,size=0x34) addr:0x0205bad4
func_0205bb08 kind:function(arm,size=0x38) addr:0x0205bb08
func_0205bb40 kind:function(arm,size=0x20) addr:0x0205bb40
func_0205bb60 kind:function(arm,size=0x78) addr:0x0205bb60
func_0205bbd8 kind:function(arm,size=0x34) addr:0x0205bbd8
func_0205bc0c kind:function(arm,size=0x18) addr:0x0205bc0c
func_0205bc24 kind:function(arm,size=0x28) addr:0x0205bc24
func_0205bc4c kind:function(arm,size=0x28) addr:0x0205bc4c
func_0205bc74 kind:function(arm,size=0x28) addr:0x0205bc74
func_0205bc9c kind:function(arm,size=0x10) addr:0x0205bc9c
func_0205bcac kind:function(arm,size=0x1c) addr:0x0205bcac
func_0205bcc8 kind:function(arm,size=0x20) addr:0x0205bcc8
func_0205bce8 kind:function(arm,size=0x20) addr:0x0205bce8
func_0205bd08 kind:function(arm,size=0xf4) addr:0x0205bd08
func_0205bdfc kind:function(arm,size=0x1c) addr:0x0205bdfc
func_0205be18 kind:function(arm,size=0x1c) addr:0x0205be18
func_0205be34 kind:function(arm,size=0x18) addr:0x0205be34
func_0205be4c kind:function(arm,size=0x1c) addr:0x0205be4c
func_0205be68 kind:function(arm,size=0x1c) addr:0x0205be68
func_0205be84 kind:function(arm,size=0x1c) addr:0x0205be84
func_0205bea0 kind:function(arm,size=0x34) addr:0x0205bea0
func_0205bed4 kind:function(arm,size=0x50) addr:0x0205bed4
func_0205bf24 kind:function(arm,size=0x3c) addr:0x0205bf24
func_0205bf60 kind:function(arm,size=0x2c) addr:0x0205bf60
func_0205bf8c kind:function(arm,size=0x20) addr:0x0205bf8c
func_0205bfac kind:function(arm,size=0x30) addr:0x0205bfac
func_0205bfdc kind:function(arm,size=0x24) addr:0x0205bfdc
func_0205c000 kind:function(arm,size=0x1c) addr:0x0205c000
func_0205c01c kind:function(arm,size=0x34) addr:0x0205c01c
func_0205c050 kind:function(arm,size=0x3c) addr:0x0205c050
func_0205c08c kind:function(arm,size=0x54) addr:0x0205c08c
func_0205c0e0 kind:function(arm,size=0x2c) addr:0x0205c0e0
func_0205c10c kind:function(arm,size=0x28) addr:0x0205c10c
func_0205c134 kind:function(arm,size=0x8) addr:0x0205c134
func_0205c13c kind:function(arm,size=0x18) addr:0x0205c13c
func_0205c154 kind:function(arm,size=0x50) addr:0x0205c154
func_0205c1a4 kind:function(arm,size=0x40) addr:0x0205c1a4
func_0205c1e4 kind:function(arm,size=0x20) addr:0x0205c1e4
func_0205c204 kind:function(arm,size=0xa4) addr:0x0205c204
func_0205c2a8 kind:function(arm,size=0x64) addr:0x0205c2a8
func_0205c30c kind:function(arm,size=0xc0) addr:0x0205c30c
func_0205c3cc kind:function(arm,size=0x64) addr:0x0205c3cc
func_0205c430 kind:function(arm,size=0x64) addr:0x0205c430
func_0205c494 kind:function(arm,size=0x10) addr:0x0205c494
func_0205c4a4 kind:function(arm,size=0x10) addr:0x0205c4a4
func_0205c4b4 kind:function(arm,size=0x2c) addr:0x0205c4b4
func_0205c4e0 kind:function(arm,size=0x20) addr:0x0205c4e0
func_0205c500 kind:function(arm,size=0x2c) addr:0x0205c500
func_0205c52c kind:function(arm,size=0x34) addr:0x0205c52c
func_0205c560 kind:function(arm,size=0x1c) addr:0x0205c560
func_0205c57c kind:function(arm,size=0x20) addr:0x0205c57c
func_0205c59c kind:function(arm,size=0x20) addr:0x0205c59c
func_0205c5bc kind:function(arm,size=0x20) addr:0x0205c5bc
func_0205c5dc kind:function(arm,size=0x14) addr:0x0205c5dc
func_0205c5f0 kind:function(arm,size=0x14) addr:0x0205c5f0
func_0205c604 kind:function(arm,size=0x14) addr:0x0205c604
func_0205c618 kind:function(arm,size=0xc) addr:0x0205c618
func_0205c624 kind:function(arm,size=0x1c) addr:0x0205c624
func_0205c640 kind:function(arm,size=0x10) addr:0x0205c640
func_0205c650 kind:function(arm,size=0x7c) addr:0x0205c650
func_0205c6cc kind:function(arm,size=0x44) addr:0x0205c6cc
func_0205c710 kind:function(arm,size=0x5c) addr:0x0205c710
func_0205c76c kind:function(arm,size=0x20) addr:0x0205c76c
func_0205c78c kind:function(arm,size=0x20) addr:0x0205c78c
func_0205c7ac kind:function(arm,size=0x54) addr:0x0205c7ac
func_0205c800 kind:function(arm,size=0x24) addr:0x0205c800
func_0205c824 kind:function(arm,size=0x14) addr:0x0205c824
func_0205c838 kind:function(arm,size=0x10) addr:0x0205c838
func_0205c848 kind:function(arm,size=0x10) addr:0x0205c848
func_0205c858 kind:function(arm,size=0x8) addr:0x0205c858
func_0205c860 kind:function(arm,size=0x10) addr:0x0205c860
func_0205c870 kind:function(arm,size=0x50) addr:0x0205c870
func_0205c8c0 kind:function(arm,size=0x50) addr:0x0205c8c0
func_0205c910 kind:function(arm,size=0x38) addr:0x0205c910
func_0205c948 kind:function(arm,size=0x88) addr:0x0205c948
func_0205c9d0 kind:function(arm,size=0x5c) addr:0x0205c9d0
func_0205ca2c kind:function(arm,size=0x3c) addr:0x0205ca2c
func_0205ca68 kind:function(arm,size=0x1c) addr:0x0205ca68
func_0205ca84 kind:function(arm,size=0x1c) addr:0x0205ca84
func_0205caa0 kind:function(arm,size=0x5c) addr:0x0205caa0
func_0205cafc kind:function(arm,size=0xbc) addr:0x0205cafc
func_0205cbb8 kind:function(arm,size=0x100) addr:0x0205cbb8
func_0205ccb8 kind:function(arm,size=0xe8) addr:0x0205ccb8
func_0205cda0 kind:function(arm,size=0xdc) addr:0x0205cda0
func_0205ce7c kind:function(arm,size=0xf8) addr:0x0205ce7c
func_0205cf74 kind:function(arm,size=0xf8) addr:0x0205cf74
func_0205d06c kind:function(arm,size=0x108) addr:0x0205d06c
func_0205d174 kind:function(arm,size=0x18) addr:0x0205d174
func_0205d18c kind:function(arm,size=0x18) addr:0x0205d18c
func_0205d1a4 kind:function(arm,size=0x4) addr:0x0205d1a4
func_0205d1a8 kind:function(arm,size=0x74) addr:0x0205d1a8
func_0205d21c kind:function(arm,size=0x4) addr:0x0205d21c
func_0205d220 kind:function(arm,size=0x4) addr:0x0205d220
func_0205d224 kind:function(arm,size=0x4) addr:0x0205d224
func_0205d228 kind:function(arm,size=0x10) addr:0x0205d228
func_0205d238 kind:function(arm,size=0x98) addr:0x0205d238
func_0205d2d0 kind:function(arm,size=0x1c) addr:0x0205d2d0
func_0205d2ec kind:function(arm,size=0x1c) addr:0x0205d2ec
func_0205d308 kind:function(arm,size=0xa0) addr:0x0205d308
func_0205d3a8 kind:function(arm,size=0x4) addr:0x0205d3a8
func_0205d3ac kind:function(arm,size=0x4) addr:0x0205d3ac
func_0205d3b0 kind:function(arm,size=0x4) addr:0x0205d3b0
func_0205d3b4 kind:function(arm,size=0x4) addr:0x0205d3b4
func_0205d3b8 kind:function(arm,size=0x4) addr:0x0205d3b8
func_0205d3bc kind:function(arm,size=0x3c) addr:0x0205d3bc
func_0205d3f8 kind:function(arm,size=0x84) addr:0x0205d3f8
func_0205d47c kind:function(arm,size=0x8c) addr:0x0205d47c
func_0205d508 kind:function(arm,size=0x104) addr:0x0205d508
func_0205d60c kind:function(arm,size=0x10) addr:0x0205d60c
func_0205d61c kind:function(arm,size=0x18) addr:0x0205d61c
func_0205d634 kind:function(arm,size=0x10) addr:0x0205d634
func_0205d644 kind:function(arm,size=0x4c) addr:0x0205d644
func_0205d690 kind:function(arm,size=0x1c) addr:0x0205d690
func_0205d6ac kind:function(arm,size=0x14) addr:0x0205d6ac
func_0205d6c0 kind:function(arm,size=0x1c) addr:0x0205d6c0
func_0205d6dc kind:function(arm,size=0x1c) addr:0x0205d6dc
func_0205d6f8 kind:function(arm,size=0x10) addr:0x0205d6f8
func_0205d708 kind:function(arm,size=0x10) addr:0x0205d708
func_0205d718 kind:function(arm,size=0x288) addr:0x0205d718
func_0205d9a0 kind:function(arm,size=0x1d8) addr:0x0205d9a0
func_0205db78 kind:function(arm,size=0xe8) addr:0x0205db78
func_0205dc60 kind:function(arm,size=0x14) addr:0x0205dc60
func_0205dc74 kind:function(arm,size=0x138) addr:0x0205dc74
func_0205ddac kind:function(arm,size=0xc) addr:0x0205ddac
func_0205ddb8 kind:function(arm,size=0x8c) addr:0x0205ddb8
func_0205de44 kind:function(arm,size=0x60) addr:0x0205de44
func_0205dea4 kind:function(arm,size=0x54) addr:0x0205dea4
func_0205def8 kind:function(arm,size=0xd0) addr:0x0205def8
func_0205dfc8 kind:function(arm,size=0x164) addr:0x0205dfc8
func_0205e12c kind:function(arm,size=0xe8) addr:0x0205e12c
func_0205e214 kind:function(arm,size=0x5c) addr:0x0205e214
func_0205e270 kind:function(arm,size=0x98) addr:0x0205e270
func_0205e308 kind:function(arm,size=0xf8) addr:0x0205e308
func_0205e400 kind:function(arm,size=0x64) addr:0x0205e400
func_0205e464 kind:function(arm,size=0xc) addr:0x0205e464
func_0205e470 kind:function(arm,size=0xc) addr:0x0205e470
func_0205e47c kind:function(arm,size=0x34) addr:0x0205e47c
func_0205e4b0 kind:function(arm,size=0x58) addr:0x0205e4b0
func_0205e508 kind:function(arm,size=0x154) addr:0x0205e508
func_0205e65c kind:function(arm,size=0x2c) addr:0x0205e65c
func_0205e688 kind:function(arm,size=0x54) addr:0x0205e688
func_0205e6dc kind:function(arm,size=0x10) addr:0x0205e6dc
func_0205e6ec kind:function(arm,size=0x8c) addr:0x0205e6ec
func_0205e778 kind:function(arm,size=0x60) addr:0x0205e778
func_0205e7d8 kind:function(arm,size=0x50) addr:0x0205e7d8
func_0205e828 kind:function(arm,size=0x98) addr:0x0205e828
func_0205e8c0 kind:function(arm,size=0x40) addr:0x0205e8c0
func_0205e900 kind:function(arm,size=0x3c) addr:0x0205e900
func_0205e93c kind:function(arm,size=0x38) addr:0x0205e93c
func_0205e974 kind:function(arm,size=0x28) addr:0x0205e974
func_0205e99c kind:function(arm,size=0x18) addr:0x0205e99c
func_0205e9b4 kind:function(arm,size=0x10c) addr:0x0205e9b4
func_0205eac0 kind:function(arm,size=0x48) addr:0x0205eac0
func_0205eb08 kind:function(arm,size=0x34) addr:0x0205eb08
func_0205eb3c kind:function(arm,size=0x5c) addr:0x0205eb3c
func_0205eb98 kind:function(arm,size=0x24) addr:0x0205eb98
func_0205ebbc kind:function(arm,size=0x50) addr:0x0205ebbc
func_0205ec0c kind:function(arm,size=0x48) addr:0x0205ec0c
func_0205ec54 kind:function(arm,size=0xb4) addr:0x0205ec54
func_0205ed08 kind:function(arm,size=0x1f4) addr:0x0205ed08
func_0205eefc kind:function(arm,size=0x2c) addr:0x0205eefc
func_0205ef28 kind:function(arm,size=0x5c) addr:0x0205ef28
func_0205ef84 kind:function(arm,size=0x14) addr:0x0205ef84
func_0205ef98 kind:function(arm,size=0x14) addr:0x0205ef98
func_0205efac kind:function(arm,size=0x8c) addr:0x0205efac
func_0205f038 kind:function(arm,size=0x14) addr:0x0205f038
func_0205f04c kind:function(arm,size=0xf0) addr:0x0205f04c
func_0205f13c kind:function(arm,size=0x50) addr:0x0205f13c
func_0205f18c kind:function(arm,size=0x154) addr:0x0205f18c
func_0205f2e0 kind:function(arm,size=0x1fc) addr:0x0205f2e0
func_0205f4dc kind:function(arm,size=0x94) addr:0x0205f4dc
func_0205f570 kind:function(arm,size=0x1b8) addr:0x0205f570
func_0205f73c kind:function(arm,size=0x280) addr:0x0205f73c
func_0205f9bc kind:function(arm,size=0x5c) addr:0x0205f9bc
func_0205fa18 kind:function(arm,size=0x190) addr:0x0205fa18
func_0205fba8 kind:function(arm,size=0x50) addr:0x0205fba8
func_0205fbf8 kind:function(arm,size=0xc0) addr:0x0205fbf8
func_0205fcb8 kind:function(arm,size=0x34) addr:0x0205fcb8
func_0205fcec kind:function(arm,size=0x2c) addr:0x0205fcec
func_0205fd18 kind:function(arm,size=0x2c) addr:0x0205fd18
func_0205fd44 kind:function(arm,size=0x98) addr:0x0205fd44
func_0205fddc kind:function(arm,size=0x12c) addr:0x0205fddc
func_0205ff08 kind:function(arm,size=0x1e4) addr:0x0205ff08
func_020600ec kind:function(arm,size=0x3ac) addr:0x020600ec
func_02060498 kind:function(arm,size=0x80) addr:0x02060498
func_02060518 kind:function(arm,size=0x28) addr:0x02060518
func_02060540 kind:function(arm,size=0x8) addr:0x02060540
func_02060548 kind:function(arm,size=0x58) addr:0x02060548
func_020605a0 kind:function(arm,size=0x1c) addr:0x020605a0
func_020605bc kind:function(arm,size=0x20) addr:0x020605bc
func_020605dc kind:function(arm,size=0x18) addr:0x020605dc
func_020605f4 kind:function(arm,size=0x214) addr:0x020605f4
func_02060808 kind:function(arm,size=0x94) addr:0x02060808
func_0206089c kind:function(arm,size=0x44) addr:0x0206089c
func_020608e0 kind:function(arm,size=0x1a4) addr:0x020608e0
func_02060a84 kind:function(arm,size=0x2c) addr:0x02060a84
func_02060ab0 kind:function(arm,size=0x40) addr:0x02060ab0
func_02060af0 kind:function(arm,size=0xb4) addr:0x02060af0
func_02060ba4 kind:function(arm,size=0x70) addr:0x02060ba4
func_02060c14 kind:function(arm,size=0x124) addr:0x02060c14
func_02060d38 kind:function(arm,size=0x20) addr:0x02060d38
func_02060d58 kind:function(arm,size=0x84) addr:0x02060d58
func_02060ddc kind:function(arm,size=0x28) addr:0x02060ddc
func_02060e04 kind:function(arm,size=0x28) addr:0x02060e04
func_02060e2c kind:function(arm,size=0x144) addr:0x02060e2c
func_02060f70 kind:function(arm,size=0x7c) addr:0x02060f70
func_02060fec kind:function(arm,size=0x40) addr:0x02060fec
func_0206102c kind:function(arm,size=0x48) addr:0x0206102c
func_02061074 kind:function(arm,size=0x70) addr:0x02061074
func_020610e4 kind:function(arm,size=0x48) addr:0x020610e4
func_0206112c kind:function(arm,size=0x3c) addr:0x0206112c
func_02061168 kind:function(arm,size=0xc0) addr:0x02061168
func_02061228 kind:function(arm,size=0x48) addr:0x02061228
func_02061270 kind:function(arm,size=0x10) addr:0x02061270
func_02061280 kind:function(arm,size=0x6c) addr:0x02061280
func_020612ec kind:function(arm,size=0x24) addr:0x020612ec
func_02061310 kind:function(arm,size=0x48) addr:0x02061310
func_02061358 kind:function(arm,size=0x8) addr:0x02061358
func_02061360 kind:function(arm,size=0x6c) addr:0x02061360
func_020613cc kind:function(arm,size=0x8) addr:0x020613cc
func_020613d4 kind:function(arm,size=0x8) addr:0x020613d4
func_020613dc kind:function(arm,size=0x148) addr:0x020613dc
func_02061524 kind:function(arm,size=0x20) addr:0x02061524
func_02061544 kind:function(arm,size=0x1c) addr:0x02061544
func_02061560 kind:function(arm,size=0x3c) addr:0x02061560
func_0206159c kind:function(arm,size=0x28) addr:0x0206159c
func_020615c4 kind:function(arm,size=0xf8) addr:0x020615c4
func_020616bc kind:function(arm,size=0xfc) addr:0x020616bc
func_020617b8 kind:function(arm,size=0x90) addr:0x020617b8
func_02061848 kind:function(arm,size=0x94) addr:0x02061848
func_020618dc kind:function(arm,size=0xf4) addr:0x020618dc
func_020619d0 kind:function(arm,size=0xf0) addr:0x020619d0
func_02061ac0 kind:function(arm,size=0x10) addr:0x02061ac0
func_02061ad0 kind:function(arm,size=0x54) addr:0x02061ad0
func_02061b24 kind:function(arm,size=0x4c) addr:0x02061b24
func_02061b70 kind:function(arm,size=0x18) addr:0x02061b70
func_02061b88 kind:function(arm,size=0x24) addr:0x02061b88
func_02061bac kind:function(arm,size=0xc0) addr:0x02061bac
func_02061c6c kind:function(thumb,size=0x1c) addr:0x02061c6c
func_02061c88 kind:function(thumb,size=0x1c) addr:0x02061c88
func_02061ca4 kind:function(thumb,size=0x18) addr:0x02061ca4
func_02061cbc kind:function(arm,size=0x220) addr:0x02061cbc
func_02061edc kind:function(arm,size=0x7c) addr:0x02061edc
func_02061f58 kind:function(arm,size=0x28) addr:0x02061f58
func_02061f80 kind:function(arm,size=0x34) addr:0x02061f80
func_02061fb4 kind:function(arm,size=0x34) addr:0x02061fb4
func_02061fe8 kind:function(thumb,size=0x1e) addr:0x02061fe8
func_02062008 kind:function(thumb,size=0x1a) addr:0x02062008
func_02062024 kind:function(thumb,size=0x1a) addr:0x02062024
func_02062040 kind:function(arm,size=0x38c) addr:0x02062040
func_020623cc kind:function(arm,size=0x2d4) addr:0x020623cc
func_020626a0 kind:function(arm,size=0xa0) addr:0x020626a0
func_02062740 kind:function(arm,size=0x2c) addr:0x02062740
func_0206276c kind:function(arm,size=0x34) addr:0x0206276c
func_020627a0 kind:function(arm,size=0x664) addr:0x020627a0
func_02062e04 kind:function(arm,size=0x10) addr:0x02062e04
func_02062e14 kind:function(arm,size=0x10) addr:0x02062e14
func_02062e24 kind:function(arm,size=0x2c) addr:0x02062e24
func_02062e50 kind:function(arm,size=0x34) addr:0x02062e50
func_02062e84 kind:function(arm,size=0x24) addr:0x02062e84
func_02062ea8 kind:function(arm,size=0x38) addr:0x02062ea8
func_02062ee0 kind:function(arm,size=0x30) addr:0x02062ee0
func_02062f10 kind:function(arm,size=0x2c) addr:0x02062f10
func_02062f3c kind:function(arm,size=0x28) addr:0x02062f3c
func_02062f64 kind:function(arm,size=0x34) addr:0x02062f64
func_02062f98 kind:function(arm,size=0x34) addr:0x02062f98
func_02062fcc kind:function(arm,size=0x3c) addr:0x02062fcc
func_02063008 kind:function(arm,size=0x84) addr:0x02063008
func_0206308c kind:function(arm,size=0x60) addr:0x0206308c
func_020630ec kind:function(arm,size=0x118) addr:0x020630ec
func_02063204 kind:function(arm,size=0x12c) addr:0x02063204
func_02063330 kind:function(arm,size=0x5c) addr:0x02063330
func_0206338c kind:function(arm,size=0x7c) addr:0x0206338c
func_02063408 kind:function(arm,size=0xbc) addr:0x02063408
func_020634c4 kind:function(arm,size=0x1a8) addr:0x020634c4
func_0206366c kind:function(arm,size=0x4) addr:0x0206366c
func_02063670 kind:function(arm,size=0x14c) addr:0x02063670
func_020637bc kind:function(arm,size=0x34) addr:0x020637bc
func_020637f0 kind:function(arm,size=0x3c) addr:0x020637f0
func_0206382c kind:function(arm,size=0x48) addr:0x0206382c
func_02063874 kind:function(arm,size=0x68) addr:0x02063874
func_020638dc kind:function(arm,size=0x1c) addr:0x020638dc
func_020638f8 kind:function(arm,size=0x28) addr:0x020638f8
func_02063920 kind:function(arm,size=0x40) addr:0x02063920
func_02063960 kind:function(arm,size=0x60) addr:0x02063960
func_020639c0 kind:function(arm,size=0xb8) addr:0x020639c0
func_02063a78 kind:function(arm,size=0x290) addr:0x02063a78
func_02063d08 kind:function(arm,size=0x248) addr:0x02063d08
func_02063f50 kind:function(arm,size=0xc) addr:0x02063f50
func_02063f5c kind:function(arm,size=0x150) addr:0x02063f5c
func_020640ac kind:function(arm,size=0x100) addr:0x020640ac
func_020641ac kind:function(arm,size=0xac) addr:0x020641ac
func_02064258 kind:function(arm,size=0x1d8) addr:0x02064258
func_02064430 kind:function(arm,size=0xe8) addr:0x02064430
func_02064518 kind:function(arm,size=0x134) addr:0x02064518
func_0206464c kind:function(arm,size=0x20) addr:0x0206464c
func_0206466c kind:function(arm,size=0xa8) addr:0x0206466c
func_02064714 kind:function(arm,size=0x70) addr:0x02064714
func_02064784 kind:function(arm,size=0x80) addr:0x02064784
func_02064804 kind:function(arm,size=0x80) addr:0x02064804
func_02064884 kind:function(arm,size=0x34) addr:0x02064884
func_020648b8 kind:function(arm,size=0x14) addr:0x020648b8
func_020648cc kind:function(arm,size=0x14) addr:0x020648cc
func_020648e0 kind:function(arm,size=0x24) addr:0x020648e0
func_02064904 kind:function(arm,size=0x24) addr:0x02064904
func_02064928 kind:function(arm,size=0x14) addr:0x02064928
func_0206493c kind:function(arm,size=0x14) addr:0x0206493c
func_02064950 kind:function(arm,size=0x14) addr:0x02064950
func_02064964 kind:function(arm,size=0x14) addr:0x02064964
func_02064978 kind:function(arm,size=0x14) addr:0x02064978
func_0206498c kind:function(arm,size=0x28) addr:0x0206498c
func_020649b4 kind:function(arm,size=0x28) addr:0x020649b4
func_020649dc kind:function(arm,size=0xe0) addr:0x020649dc
func_02064abc kind:function(arm,size=0x14) addr:0x02064abc
func_02064ad0 kind:function(arm,size=0x34) addr:0x02064ad0
func_02064b04 kind:function(arm,size=0x20) addr:0x02064b04
func_02064b24 kind:function(arm,size=0x34) addr:0x02064b24
func_02064b58 kind:function(arm,size=0x20) addr:0x02064b58
func_02064b78 kind:function(arm,size=0x84) addr:0x02064b78
func_02064bfc kind:function(arm,size=0x74) addr:0x02064bfc
func_02064c70 kind:function(arm,size=0x84) addr:0x02064c70
func_02064cf4 kind:function(arm,size=0x74) addr:0x02064cf4
func_02064d68 kind:function(arm,size=0x34) addr:0x02064d68
func_02064d9c kind:function(arm,size=0x20) addr:0x02064d9c
func_02064dbc kind:function(arm,size=0x34) addr:0x02064dbc
func_02064df0 kind:function(arm,size=0x20) addr:0x02064df0
func_02064e10 kind:function(arm,size=0x50) addr:0x02064e10
func_02064e60 kind:function(arm,size=0x40) addr:0x02064e60
func_02064ea0 kind:function(arm,size=0x58) addr:0x02064ea0
func_02064ef8 kind:function(arm,size=0x48) addr:0x02064ef8
func_02064f40 kind:function(arm,size=0xb0) addr:0x02064f40
func_02064ff0 kind:function(arm,size=0x1c) addr:0x02064ff0
func_0206500c kind:function(arm,size=0x28) addr:0x0206500c
func_02065034 kind:function(arm,size=0x1c) addr:0x02065034
func_02065050 kind:function(arm,size=0x1c) addr:0x02065050
func_0206506c kind:function(arm,size=0x1c) addr:0x0206506c
func_02065088 kind:function(arm,size=0x10c) addr:0x02065088
func_02065194 kind:function(arm,size=0x6c) addr:0x02065194
func_02065200 kind:function(arm,size=0x28) addr:0x02065200
func_02065228 kind:function(arm,size=0x98) addr:0x02065228
func_020652c0 kind:function(arm,size=0x90) addr:0x020652c0
func_02065350 kind:function(arm,size=0x58) addr:0x02065350
func_020653a8 kind:function(arm,size=0x30) addr:0x020653a8
func_020653d8 kind:function(arm,size=0x30) addr:0x020653d8
func_02065408 kind:function(arm,size=0x14) addr:0x02065408
func_0206541c kind:function(arm,size=0x28) addr:0x0206541c
func_02065444 kind:function(arm,size=0xa0) addr:0x02065444
func_020654e4 kind:function(arm,size=0x30) addr:0x020654e4
func_02065514 kind:function(arm,size=0x30) addr:0x02065514
func_02065544 kind:function(arm,size=0x2c) addr:0x02065544
func_02065570 kind:function(arm,size=0x94) addr:0x02065570
func_02065604 kind:function(arm,size=0x1d0) addr:0x02065604
func_020657d4 kind:function(arm,size=0x2c4) addr:0x020657d4
func_02065a98 kind:function(arm,size=0x18c) addr:0x02065a98
func_02065c24 kind:function(arm,size=0x3c) addr:0x02065c24
func_02065c60 kind:function(arm,size=0x3c) addr:0x02065c60
func_02065c9c kind:function(arm,size=0x3c) addr:0x02065c9c
func_02065cd8 kind:function(arm,size=0x54) addr:0x02065cd8
func_02065d2c kind:function(arm,size=0x58) addr:0x02065d2c
func_02065d84 kind:function(arm,size=0x58) addr:0x02065d84
func_02065ddc kind:function(arm,size=0x58) addr:0x02065ddc
func_02065e34 kind:function(arm,size=0x54) addr:0x02065e34
func_02065e88 kind:function(arm,size=0x58) addr:0x02065e88
func_02065ee0 kind:function(arm,size=0x58) addr:0x02065ee0
func_02065f38 kind:function(arm,size=0x58) addr:0x02065f38
func_02065f90 kind:function(arm,size=0x60) addr:0x02065f90
func_02065ff0 kind:function(arm,size=0x60) addr:0x02065ff0
func_02066050 kind:function(arm,size=0x60) addr:0x02066050
func_020660b0 kind:function(arm,size=0x60) addr:0x020660b0
func_02066110 kind:function(arm,size=0x60) addr:0x02066110
func_02066170 kind:function(arm,size=0x60) addr:0x02066170
func_020661d0 kind:function(arm,size=0x60) addr:0x020661d0
func_02066230 kind:function(arm,size=0x60) addr:0x02066230
func_02066290 kind:function(arm,size=0x60) addr:0x02066290
func_020662f0 kind:function(arm,size=0x60) addr:0x020662f0
func_02066350 kind:function(arm,size=0x60) addr:0x02066350
func_020663b0 kind:function(arm,size=0x60) addr:0x020663b0
func_02066410 kind:function(arm,size=0x60) addr:0x02066410
func_02066470 kind:function(arm,size=0x60) addr:0x02066470
func_020664d0 kind:function(arm,size=0x60) addr:0x020664d0
func_02066530 kind:function(arm,size=0x60) addr:0x02066530
func_02066590 kind:function(arm,size=0xa0) addr:0x02066590
func_02066630 kind:function(arm,size=0x70) addr:0x02066630
func_020666a0 kind:function(arm,size=0x48) addr:0x020666a0
func_020666e8 kind:function(arm,size=0x48) addr:0x020666e8
func_02066730 kind:function(arm,size=0x6c) addr:0x02066730
func_0206679c kind:function(arm,size=0x44) addr:0x0206679c
func_020667e0 kind:function(arm,size=0x18) addr:0x020667e0
func_020667f8 kind:function(arm,size=0x64) addr:0x020667f8
func_0206685c kind:function(arm,size=0x40) addr:0x0206685c
func_0206689c kind:function(arm,size=0x18) addr:0x0206689c
func_020668b4 kind:function(arm,size=0x64) addr:0x020668b4
func_02066918 kind:function(arm,size=0x40) addr:0x02066918
func_02066958 kind:function(arm,size=0x5c) addr:0x02066958
func_020669b4 kind:function(arm,size=0x140) addr:0x020669b4
func_02066af4 kind:function(arm,size=0x4c) addr:0x02066af4
func_02066b40 kind:function(arm,size=0x34) addr:0x02066b40
func_02066b74 kind:function(arm,size=0x6c) addr:0x02066b74
func_02066be0 kind:function(arm,size=0x44) addr:0x02066be0
func_02066c24 kind:function(arm,size=0x90) addr:0x02066c24
func_02066cb4 kind:function(arm,size=0x68) addr:0x02066cb4
func_02066d1c kind:function(arm,size=0x6c) addr:0x02066d1c
func_02066d88 kind:function(arm,size=0x44) addr:0x02066d88
func_02066dcc kind:function(arm,size=0x24) addr:0x02066dcc
func_02066df0 kind:function(arm,size=0x44) addr:0x02066df0
func_02066e34 kind:function(arm,size=0x288) addr:0x02066e34
func_020670bc kind:function(arm,size=0x10) addr:0x020670bc
func_020670cc kind:function(arm,size=0x80) addr:0x020670cc
func_0206714c kind:function(arm,size=0x70) addr:0x0206714c
func_020671bc kind:function(arm,size=0x6c) addr:0x020671bc
func_02067228 kind:function(arm,size=0xc4) addr:0x02067228
func_020672ec kind:function(arm,size=0x98) addr:0x020672ec
func_02067384 kind:function(arm,size=0x68) addr:0x02067384
func_020673ec kind:function(arm,size=0x7c) addr:0x020673ec
func_02067468 kind:function(arm,size=0x84) addr:0x02067468
func_020674ec kind:function(arm,size=0x54) addr:0x020674ec
func_02067540 kind:function(arm,size=0xf8) addr:0x02067540
func_02067638 kind:function(arm,size=0xac) addr:0x02067638
func_020676e4 kind:function(arm,size=0x60) addr:0x020676e4
func_02067744 kind:function(arm,size=0xb8) addr:0x02067744
func_020677fc kind:function(arm,size=0x2c) addr:0x020677fc
func_02067828 kind:function(arm,size=0x18) addr:0x02067828
func_02067840 kind:function(arm,size=0x1c) addr:0x02067840
func_0206785c kind:function(arm,size=0x14) addr:0x0206785c
func_02067870 kind:function(arm,size=0x18) addr:0x02067870
func_02067888 kind:function(arm,size=0x18) addr:0x02067888
func_020678a0 kind:function(arm,size=0x4c) addr:0x020678a0
func_020678ec kind:function(arm,size=0x38) addr:0x020678ec
func_02067924 kind:function(arm,size=0x1c) addr:0x02067924
func_02067940 kind:function(arm,size=0x1c) addr:0x02067940
func_0206795c kind:function(arm,size=0x24) addr:0x0206795c
func_02067980 kind:function(arm,size=0x2c) addr:0x02067980
func_020679ac kind:function(arm,size=0x94) addr:0x020679ac
func_02067a40 kind:function(arm,size=0x130) addr:0x02067a40
func_02067b70 kind:function(thumb,size=0xe) addr:0x02067b70
func_02067b80 kind:function(arm,size=0x8) addr:0x02067b80
func_02067b88 kind:function(arm,size=0x94) addr:0x02067b88
func_02067c1c kind:function(arm,size=0xd8) addr:0x02067c1c
func_02067cf4 kind:function(arm,size=0x6c) addr:0x02067cf4
func_02067d60 kind:function(arm,size=0x74) addr:0x02067d60
func_02067dd4 kind:function(arm,size=0x18) addr:0x02067dd4
func_02067dec kind:function(arm,size=0x18) addr:0x02067dec
func_02067e04 kind:function(arm,size=0x2c) addr:0x02067e04
func_02067e30 kind:function(arm,size=0x54) addr:0x02067e30
func_02067e84 kind:function(arm,size=0x50) addr:0x02067e84
func_02067ed4 kind:function(arm,size=0x64) addr:0x02067ed4
func_02067f38 kind:function(arm,size=0x60) addr:0x02067f38
func_02067f98 kind:function(arm,size=0x18) addr:0x02067f98
func_02067fb0 kind:function(arm,size=0x14) addr:0x02067fb0
func_02067fc4 kind:function(arm,size=0x68) addr:0x02067fc4
func_0206802c kind:function(arm,size=0x28) addr:0x0206802c
func_02068054 kind:function(arm,size=0x7c) addr:0x02068054
func_020680d0 kind:function(arm,size=0x18) addr:0x020680d0
func_020680e8 kind:function(arm,size=0x2c) addr:0x020680e8
func_02068114 kind:function(arm,size=0x28) addr:0x02068114
func_0206813c kind:function(arm,size=0x30) addr:0x0206813c
func_0206816c kind:function(arm,size=0x2c) addr:0x0206816c
func_02068198 kind:function(arm,size=0x74) addr:0x02068198
func_0206820c kind:function(arm,size=0x180) addr:0x0206820c
func_0206838c kind:function(arm,size=0xb4) addr:0x0206838c
func_02068440 kind:function(arm,size=0xb0) addr:0x02068440
func_020684f0 kind:function(arm,size=0xf0) addr:0x020684f0
func_020685e0 kind:function(arm,size=0x38) addr:0x020685e0
func_02068618 kind:function(arm,size=0x30) addr:0x02068618
func_02068648 kind:function(arm,size=0x3c) addr:0x02068648
func_02068684 kind:function(arm,size=0x28) addr:0x02068684
func_020686ac kind:function(arm,size=0x84) addr:0x020686ac
func_02068730 kind:function(arm,size=0x48) addr:0x02068730
func_02068778 kind:function(arm,size=0x5c) addr:0x02068778
func_020687d4 kind:function(arm,size=0x58) addr:0x020687d4
func_0206882c kind:function(arm,size=0x14) addr:0x0206882c
func_02068840 kind:function(arm,size=0x2c) addr:0x02068840
func_0206886c kind:function(arm,size=0x38) addr:0x0206886c
func_020688a4 kind:function(arm,size=0xc) addr:0x020688a4
func_020688b0 kind:function(arm,size=0x34) addr:0x020688b0
func_020688e4 kind:function(arm,size=0x2c) addr:0x020688e4
func_02068910 kind:function(arm,size=0x18) addr:0x02068910
func_02068928 kind:function(arm,size=0x40) addr:0x02068928
func_02068968 kind:function(arm,size=0x10) addr:0x02068968
func_02068978 kind:function(arm,size=0x14) addr:0x02068978
func_0206898c kind:function(arm,size=0x10) addr:0x0206898c
func_0206899c kind:function(arm,size=0x14) addr:0x0206899c
func_020689b0 kind:function(arm,size=0x4) addr:0x020689b0
func_020689b4 kind:function(arm,size=0x20) addr:0x020689b4
func_020689d4 kind:function(arm,size=0x10) addr:0x020689d4
func_020689e4 kind:function(arm,size=0x1c) addr:0x020689e4
func_02068a00 kind:function(arm,size=0x1c) addr:0x02068a00
func_02068a1c kind:function(arm,size=0x14) addr:0x02068a1c
func_02068a30 kind:function(arm,size=0x14) addr:0x02068a30
func_02068a44 kind:function(arm,size=0x18) addr:0x02068a44
func_02068a5c kind:function(arm,size=0x48) addr:0x02068a5c
func_02068aa4 kind:function(arm,size=0x370) addr:0x02068aa4
func_02068e14 kind:function(arm,size=0xb4) addr:0x02068e14
func_02068ec8 kind:function(arm,size=0x10) addr:0x02068ec8
func_02068ed8 kind:function(arm,size=0x14) addr:0x02068ed8
func_02068eec kind:function(arm,size=0x14) addr:0x02068eec
func_02068f00 kind:function(arm,size=0x68) addr:0x02068f00
func_02068f68 kind:function(arm,size=0xc8) addr:0x02068f68
func_02069030 kind:function(arm,size=0x30) addr:0x02069030
func_02069060 kind:function(arm,size=0x48) addr:0x02069060
func_020690a8 kind:function(arm,size=0x4c) addr:0x020690a8
func_020690f4 kind:function(arm,size=0xf8) addr:0x020690f4
func_020691ec kind:function(arm,size=0x138) addr:0x020691ec
func_02069324 kind:function(arm,size=0x240) addr:0x02069324
func_02069564 kind:function(arm,size=0x198) addr:0x02069564
func_020696fc kind:function(arm,size=0x210) addr:0x020696fc
func_0206990c kind:function(arm,size=0x50) addr:0x0206990c
func_0206995c kind:function(arm,size=0x80) addr:0x0206995c
func_020699dc kind:function(arm,size=0x19c) addr:0x020699dc
func_02069b78 kind:function(arm,size=0x1f4) addr:0x02069b78
func_02069d6c kind:function(arm,size=0x28) addr:0x02069d6c
func_02069d94 kind:function(arm,size=0x124) addr:0x02069d94
func_02069eb8 kind:function(arm,size=0x2c) addr:0x02069eb8
func_02069ee4 kind:function(arm,size=0x154) addr:0x02069ee4
func_0206a038 kind:function(arm,size=0xdc) addr:0x0206a038
func_0206a114 kind:function(arm,size=0x60) addr:0x0206a114
func_0206a174 kind:function(arm,size=0x14) addr:0x0206a174
func_0206a188 kind:function(arm,size=0x7c) addr:0x0206a188
func_0206a204 kind:function(arm,size=0x54) addr:0x0206a204
func_0206a258 kind:function(arm,size=0x14) addr:0x0206a258
func_0206a26c kind:function(arm,size=0x50) addr:0x0206a26c
func_0206a2bc kind:function(arm,size=0x90) addr:0x0206a2bc
func_0206a34c kind:function(arm,size=0x54) addr:0x0206a34c
func_0206a3a0 kind:function(arm,size=0xb8) addr:0x0206a3a0
func_0206a458 kind:function(arm,size=0x68) addr:0x0206a458
func_0206a4c0 kind:function(arm,size=0x78) addr:0x0206a4c0
func_0206a538 kind:function(arm,size=0x74) addr:0x0206a538
func_0206a5ac kind:function(arm,size=0x54) addr:0x0206a5ac
func_0206a600 kind:function(arm,size=0xc) addr:0x0206a600
func_0206a60c kind:function(arm,size=0xc) addr:0x0206a60c
func_0206a618 kind:function(arm,size=0x14) addr:0x0206a618
func_0206a62c kind:function(arm,size=0xb8) addr:0x0206a62c
func_0206a6e4 kind:function(arm,size=0x38) addr:0x0206a6e4
func_0206a71c kind:function(arm,size=0xc) addr:0x0206a71c
func_0206a728 kind:function(arm,size=0x8) addr:0x0206a728
func_0206a730 kind:function(arm,size=0x50) addr:0x0206a730
func_0206a780 kind:function(arm,size=0x20) addr:0x0206a780
func_0206a7a0 kind:function(arm,size=0xf4) addr:0x0206a7a0
func_0206a894 kind:function(arm,size=0x7c) addr:0x0206a894
func_0206a910 kind:function(arm,size=0xa8) addr:0x0206a910
func_0206a9b8 kind:function(arm,size=0x60) addr:0x0206a9b8
func_0206aa18 kind:function(arm,size=0x98) addr:0x0206aa18
func_0206aab0 kind:function(arm,size=0xac) addr:0x0206aab0
func_0206ab5c kind:function(arm,size=0x58) addr:0x0206ab5c
func_0206abb4 kind:function(arm,size=0x70) addr:0x0206abb4
func_0206ac24 kind:function(arm,size=0x54) addr:0x0206ac24
func_0206ac78 kind:function(arm,size=0x154) addr:0x0206ac78
func_0206adcc kind:function(arm,size=0x3c) addr:0x0206adcc
func_0206ae08 kind:function(arm,size=0x28) addr:0x0206ae08
func_0206ae30 kind:function(arm,size=0x28) addr:0x0206ae30
func_0206ae58 kind:function(arm,size=0x3c) addr:0x0206ae58
func_0206ae94 kind:function(arm,size=0x14) addr:0x0206ae94
func_0206aea8 kind:function(arm,size=0x2c) addr:0x0206aea8
func_0206aed4 kind:function(arm,size=0x44) addr:0x0206aed4
func_0206af18 kind:function(arm,size=0x208) addr:0x0206af18
func_0206b120 kind:function(arm,size=0x44) addr:0x0206b120
func_0206b164 kind:function(arm,size=0x58) addr:0x0206b164
func_0206b1bc kind:function(arm,size=0x38) addr:0x0206b1bc
func_0206b1f4 kind:function(arm,size=0x38) addr:0x0206b1f4
func_0206b22c kind:function(arm,size=0x68) addr:0x0206b22c
func_0206b294 kind:function(arm,size=0x74) addr:0x0206b294
func_0206b308 kind:function(arm,size=0x50) addr:0x0206b308
func_0206b358 kind:function(arm,size=0x70) addr:0x0206b358
func_0206b3c8 kind:function(arm,size=0x2e8) addr:0x0206b3c8
func_0206b6b0 kind:function(arm,size=0x70) addr:0x0206b6b0
func_0206b720 kind:function(arm,size=0x48) addr:0x0206b720
func_0206b768 kind:function(arm,size=0x17c) addr:0x0206b768
func_0206b8e4 kind:function(arm,size=0x68) addr:0x0206b8e4
func_0206b94c kind:function(arm,size=0xdc) addr:0x0206b94c
func_0206ba28 kind:function(arm,size=0x28) addr:0x0206ba28
func_0206ba50 kind:function(arm,size=0x28) addr:0x0206ba50
func_0206ba78 kind:function(arm,size=0x17c) addr:0x0206ba78
func_0206bbf4 kind:function(arm,size=0xcc) addr:0x0206bbf4
func_0206bcc0 kind:function(arm,size=0x458) addr:0x0206bcc0
func_0206c118 kind:function(arm,size=0x80) addr:0x0206c118
func_0206c198 kind:function(arm,size=0xd4) addr:0x0206c198
func_0206c26c kind:function(arm,size=0x6c) addr:0x0206c26c
func_0206c2d8 kind:function(arm,size=0x430) addr:0x0206c2d8
func_0206c708 kind:function(arm,size=0x308) addr:0x0206c708
func_0206ca10 kind:function(arm,size=0x364) addr:0x0206ca10
func_0206cd74 kind:function(arm,size=0x75c) addr:0x0206cd74
func_0206d4d0 kind:function(arm,size=0xdc) addr:0x0206d4d0
func_0206d5ac kind:function(arm,size=0x70) addr:0x0206d5ac
func_0206d61c kind:function(arm,size=0x314) addr:0x0206d61c
func_0206d930 kind:function(arm,size=0x380) addr:0x0206d930
func_0206dcb0 kind:function(arm,size=0x20) addr:0x0206dcb0
func_0206dcd0 kind:function(arm,size=0x20) addr:0x0206dcd0
func_0206dcf0 kind:function(arm,size=0x5c) addr:0x0206dcf0
func_0206dd4c kind:function(arm,size=0x18) addr:0x0206dd4c
func_0206dd64 kind:function(arm,size=0xc) addr:0x0206dd64
func_0206dd70 kind:function(arm,size=0x10) addr:0x0206dd70
func_0206dd80 kind:function(arm,size=0xb4) addr:0x0206dd80
func_0206de34 kind:function(arm,size=0xe4) addr:0x0206de34
func_0206df18 kind:function(arm,size=0x8c) addr:0x0206df18
func_0206dfa4 kind:function(arm,size=0x28) addr:0x0206dfa4
func_0206dfcc kind:function(arm,size=0x188) addr:0x0206dfcc
func_0206e154 kind:function(arm,size=0x284) addr:0x0206e154
func_0206e3d8 kind:function(arm,size=0x10) addr:0x0206e3d8
func_0206e3e8 kind:function(arm,size=0xc) addr:0x0206e3e8
func_0206e3f4 kind:function(arm,size=0x24) addr:0x0206e3f4
func_0206e418 kind:function(arm,size=0xc) addr:0x0206e418
func_0206e424 kind:function(arm,size=0x60) addr:0x0206e424
func_0206e484 kind:function(arm,size=0x60) addr:0x0206e484
func_0206e4e4 kind:function(arm,size=0x44) addr:0x0206e4e4
func_0206e528 kind:function(arm,size=0x44) addr:0x0206e528
func_0206e56c kind:function(arm,size=0x44) addr:0x0206e56c
func_0206e5b0 kind:function(arm,size=0x44) addr:0x0206e5b0
func_0206e5f4 kind:function(arm,size=0x3c) addr:0x0206e5f4
func_0206e630 kind:function(arm,size=0x34) addr:0x0206e630
func_0206e664 kind:function(arm,size=0x13c) addr:0x0206e664
func_0206e7a0 kind:function(arm,size=0x120) addr:0x0206e7a0
func_0206e8c0 kind:function(arm,size=0x10) addr:0x0206e8c0
func_0206e8d0 kind:function(arm,size=0x40) addr:0x0206e8d0
func_0206e910 kind:function(arm,size=0x38) addr:0x0206e910
func_0206e948 kind:function(arm,size=0x10) addr:0x0206e948
func_0206e958 kind:function(arm,size=0x10) addr:0x0206e958
func_0206e968 kind:function(arm,size=0x74) addr:0x0206e968
func_0206e9dc kind:function(arm,size=0x1c) addr:0x0206e9dc
func_0206e9f8 kind:function(arm,size=0x7c) addr:0x0206e9f8
func_0206ea74 kind:function(arm,size=0x3c) addr:0x0206ea74
func_0206eab0 kind:function(arm,size=0x68) addr:0x0206eab0
func_0206eb18 kind:function(arm,size=0x64) addr:0x0206eb18
func_0206eb7c kind:function(arm,size=0x150) addr:0x0206eb7c
func_0206eccc kind:function(arm,size=0x3b4) addr:0x0206eccc
func_0206f080 kind:function(arm,size=0x160) addr:0x0206f080
func_0206f1e0 kind:function(arm,size=0x15c) addr:0x0206f1e0
func_0206f33c kind:function(arm,size=0x1f4) addr:0x0206f33c
func_0206f530 kind:function(arm,size=0x194) addr:0x0206f530
func_0206f6c4 kind:function(arm,size=0x408) addr:0x0206f6c4
func_0206facc kind:function(arm,size=0x334) addr:0x0206facc
func_0206fe00 kind:function(arm,size=0x16c) addr:0x0206fe00
func_0206ff6c kind:function(arm,size=0x168) addr:0x0206ff6c
func_020700d4 kind:function(arm,size=0xec) addr:0x020700d4
func_020701c0 kind:function(arm,size=0x98) addr:0x020701c0
func_02070258 kind:function(arm,size=0xcc) addr:0x02070258
func_02070324 kind:function(arm,size=0x100) addr:0x02070324
func_02070424 kind:function(arm,size=0x10c) addr:0x02070424
func_02070530 kind:function(arm,size=0xe4) addr:0x02070530
func_02070614 kind:function(arm,size=0x98) addr:0x02070614
func_020706ac kind:function(arm,size=0x44) addr:0x020706ac
func_020706f0 kind:function(arm,size=0xa0) addr:0x020706f0
func_02070790 kind:function(arm,size=0xc8) addr:0x02070790
func_02070858 kind:function(arm,size=0x50) addr:0x02070858
func_020708a8 kind:function(arm,size=0x74) addr:0x020708a8
func_0207091c kind:function(arm,size=0x4c) addr:0x0207091c
func_02070968 kind:function(arm,size=0x38) addr:0x02070968
func_020709a0 kind:function(arm,size=0x7c) addr:0x020709a0
func_02070a1c kind:function(arm,size=0x40) addr:0x02070a1c
func_02070a5c kind:function(arm,size=0xc4) addr:0x02070a5c
func_02070b20 kind:function(arm,size=0x150) addr:0x02070b20
func_02070c70 kind:function(arm,size=0x108) addr:0x02070c70
func_02070d78 kind:function(arm,size=0xd0) addr:0x02070d78
func_02070e48 kind:function(arm,size=0x7c) addr:0x02070e48
func_02070ec4 kind:function(arm,size=0x48) addr:0x02070ec4
func_02070f0c kind:function(arm,size=0xe0) addr:0x02070f0c
func_02070fec kind:function(arm,size=0xb8) addr:0x02070fec
func_020710a4 kind:function(arm,size=0x44) addr:0x020710a4
func_020710e8 kind:function(arm,size=0x24) addr:0x020710e8
func_0207110c kind:function(arm,size=0x148) addr:0x0207110c
func_02071254 kind:function(arm,size=0x12c) addr:0x02071254
func_02071380 kind:function(arm,size=0x21c) addr:0x02071380
func_0207159c kind:function(arm,size=0x1cc) addr:0x0207159c
func_02071768 kind:function(arm,size=0x108) addr:0x02071768
func_02071870 kind:function(arm,size=0xe8) addr:0x02071870
func_02071958 kind:function(arm,size=0x80) addr:0x02071958
func_020719d8 kind:function(arm,size=0x48) addr:0x020719d8
func_02071a20 kind:function(arm,size=0xf8) addr:0x02071a20
func_02071b18 kind:function(arm,size=0xd8) addr:0x02071b18
func_02071bf0 kind:function(arm,size=0x50) addr:0x02071bf0
func_02071c40 kind:function(arm,size=0x24) addr:0x02071c40
func_02071c64 kind:function(arm,size=0x148) addr:0x02071c64
func_02071dac kind:function(arm,size=0x154) addr:0x02071dac
func_02071f00 kind:function(arm,size=0xe0) addr:0x02071f00
func_02071fe0 kind:function(arm,size=0x84) addr:0x02071fe0
func_02072064 kind:function(arm,size=0x54) addr:0x02072064
func_020720b8 kind:function(arm,size=0xcc) addr:0x020720b8
func_02072184 kind:function(arm,size=0xa4) addr:0x02072184
func_02072228 kind:function(arm,size=0x40) addr:0x02072228
func_02072268 kind:function(arm,size=0x24) addr:0x02072268
func_0207228c kind:function(arm,size=0x188) addr:0x0207228c
func_02072414 kind:function(arm,size=0x8) addr:0x02072414
func_0207241c kind:function(arm,size=0x8) addr:0x0207241c
func_02072424 kind:function(arm,size=0x8) addr:0x02072424
func_0207242c kind:function(arm,size=0x8) addr:0x0207242c
func_02072434 kind:function(arm,size=0x20) addr:0x02072434
func_02072454 kind:function(arm,size=0x18) addr:0x02072454
func_0207246c kind:function(arm,size=0x14) addr:0x0207246c
func_02072480 kind:function(arm,size=0x2c) addr:0x02072480
func_020724ac kind:function(arm,size=0x2c) addr:0x020724ac
func_020724d8 kind:function(arm,size=0x24) addr:0x020724d8
func_020724fc kind:function(arm,size=0x24) addr:0x020724fc
func_02072520 kind:function(arm,size=0xc) addr:0x02072520
func_0207252c kind:function(arm,size=0xc) addr:0x0207252c
func_02072538 kind:function(arm,size=0xc) addr:0x02072538
func_02072544 kind:function(arm,size=0xc) addr:0x02072544
func_02072550 kind:function(arm,size=0xc) addr:0x02072550
func_0207255c kind:function(arm,size=0xc) addr:0x0207255c
func_02072568 kind:function(arm,size=0xc) addr:0x02072568
func_02072574 kind:function(arm,size=0xc) addr:0x02072574
func_02072580 kind:function(arm,size=0xc) addr:0x02072580
func_0207258c kind:function(arm,size=0xc) addr:0x0207258c
func_02072598 kind:function(arm,size=0xc) addr:0x02072598
func_020725a4 kind:function(arm,size=0xc) addr:0x020725a4
func_020725b0 kind:function(arm,size=0x2c) addr:0x020725b0
func_020725dc kind:function(arm,size=0x2c) addr:0x020725dc
func_02072608 kind:function(arm,size=0xc) addr:0x02072608
func_02072614 kind:function(arm,size=0xc) addr:0x02072614
func_02072620 kind:function(arm,size=0xc) addr:0x02072620
func_0207262c kind:function(arm,size=0xc) addr:0x0207262c
func_02072638 kind:function(arm,size=0xc) addr:0x02072638
func_02072644 kind:function(arm,size=0xc) addr:0x02072644
func_02072650 kind:function(arm,size=0xc) addr:0x02072650
func_0207265c kind:function(arm,size=0xc) addr:0x0207265c
func_02072668 kind:function(arm,size=0xc) addr:0x02072668
func_02072674 kind:function(arm,size=0xc) addr:0x02072674
func_02072680 kind:function(arm,size=0xc) addr:0x02072680
func_0207268c kind:function(arm,size=0xc) addr:0x0207268c
func_02072698 kind:function(arm,size=0xc) addr:0x02072698
func_020726a4 kind:function(arm,size=0xc) addr:0x020726a4
func_020726b0 kind:function(arm,size=0x2c) addr:0x020726b0
func_020726dc kind:function(arm,size=0x2c) addr:0x020726dc
func_02072708 kind:function(arm,size=0xc) addr:0x02072708
func_02072714 kind:function(arm,size=0xc) addr:0x02072714
func_02072720 kind:function(arm,size=0x30) addr:0x02072720
func_02072750 kind:function(arm,size=0x18) addr:0x02072750
func_02072768 kind:function(arm,size=0x3c) addr:0x02072768
func_020727a4 kind:function(arm,size=0x10) addr:0x020727a4
func_020727b4 kind:function(arm,size=0x10) addr:0x020727b4
func_020727c4 kind:function(arm,size=0x3c) addr:0x020727c4
func_02072800 kind:function(arm,size=0x24) addr:0x02072800
func_02072824 kind:function(arm,size=0x60) addr:0x02072824
func_02072884 kind:function(arm,size=0x68) addr:0x02072884
func_020728ec kind:function(arm,size=0x10) addr:0x020728ec
func_020728fc kind:function(arm,size=0xc) addr:0x020728fc
func_02072908 kind:function(arm,size=0x4c) addr:0x02072908
func_02072954 kind:function(arm,size=0x5c) addr:0x02072954
func_020729b0 kind:function(arm,size=0x14) addr:0x020729b0
func_020729c4 kind:function(arm,size=0x140) addr:0x020729c4
func_02072b04 kind:function(arm,size=0x150) addr:0x02072b04
func_02072c54 kind:function(arm,size=0x8) addr:0x02072c54
func_02072c5c kind:function(arm,size=0x58) addr:0x02072c5c
func_02072cb4 kind:function(arm,size=0x90) addr:0x02072cb4
func_02072d44 kind:function(arm,size=0x74) addr:0x02072d44
func_02072db8 kind:function(arm,size=0x1e8) addr:0x02072db8
func_02072fa0 kind:function(arm,size=0x8) addr:0x02072fa0
func_02072fa8 kind:function(arm,size=0x54) addr:0x02072fa8
func_02072ffc kind:function(arm,size=0xcc) addr:0x02072ffc
func_020730c8 kind:function(arm,size=0x44) addr:0x020730c8
func_0207310c kind:function(arm,size=0x50) addr:0x0207310c
func_0207315c kind:function(arm,size=0x88) addr:0x0207315c
func_020731e4 kind:function(arm,size=0x30) addr:0x020731e4
func_02073214 kind:function(arm,size=0x38) addr:0x02073214
func_0207324c kind:function(arm,size=0xc) addr:0x0207324c
func_02073258 kind:function(arm,size=0x48) addr:0x02073258
func_020732a0 kind:function(arm,size=0x30) addr:0x020732a0
func_020732d0 kind:function(arm,size=0x1c) addr:0x020732d0
func_020732ec kind:function(arm,size=0x48) addr:0x020732ec
func_02073334 kind:function(arm,size=0x20) addr:0x02073334
func_02073354 kind:function(arm,size=0x1c) addr:0x02073354
func_02073370 kind:function(arm,size=0x20) addr:0x02073370
func_02073390 kind:function(arm,size=0x18) addr:0x02073390
func_020733a8 kind:function(arm,size=0x94) addr:0x020733a8
func_0207343c kind:function(arm,size=0x10) addr:0x0207343c
func_0207344c kind:function(arm,size=0xc) addr:0x0207344c
func_02073458 kind:function(arm,size=0x20) addr:0x02073458
func_02073478 kind:function(arm,size=0x54) addr:0x02073478
func_020734cc kind:function(arm,size=0x14) addr:0x020734cc
func_020734e0 kind:function(arm,size=0x14) addr:0x020734e0
func_020734f4 kind:function(arm,size=0x20) addr:0x020734f4
func_02073514 kind:function(arm,size=0x24) addr:0x02073514
func_02073538 kind:function(arm,size=0x2c) addr:0x02073538
func_02073564 kind:function(arm,size=0x34) addr:0x02073564
func_02073598 kind:function(arm,size=0xb4) addr:0x02073598
func_0207364c kind:function(arm,size=0x164) addr:0x0207364c
func_020737b0 kind:function(arm,size=0x98) addr:0x020737b0
func_02073848 kind:function(arm,size=0xc) addr:0x02073848
func_02073854 kind:function(arm,size=0x50) addr:0x02073854
func_020738a4 kind:function(arm,size=0x4c) addr:0x020738a4
func_020738f0 kind:function(arm,size=0x54) addr:0x020738f0
func_02073944 kind:function(arm,size=0x48) addr:0x02073944
func_0207398c kind:function(arm,size=0x50) addr:0x0207398c
func_020739dc kind:function(arm,size=0x54) addr:0x020739dc
func_02073a30 kind:function(arm,size=0x38) addr:0x02073a30
func_02073a68 kind:function(arm,size=0x68) addr:0x02073a68
func_02073ad0 kind:function(arm,size=0x84) addr:0x02073ad0
func_02073b54 kind:function(arm,size=0x50) addr:0x02073b54
func_02073ba4 kind:function(arm,size=0x60) addr:0x02073ba4
func_02073c04 kind:function(arm,size=0x78) addr:0x02073c04
func_02073c7c kind:function(arm,size=0x60) addr:0x02073c7c
func_02073cdc kind:function(arm,size=0x28) addr:0x02073cdc
func_02073d04 kind:function(arm,size=0x1a0) addr:0x02073d04
func_02073ea4 kind:function(arm,size=0x54) addr:0x02073ea4
func_02073ef8 kind:function(arm,size=0x1c) addr:0x02073ef8
func_02073f14 kind:function(arm,size=0x6c) addr:0x02073f14
func_02073f80 kind:function(arm,size=0x30) addr:0x02073f80
func_02073fb0 kind:function(arm,size=0x74) addr:0x02073fb0
func_02074024 kind:function(arm,size=0x30) addr:0x02074024
func_02074054 kind:function(arm,size=0x10) addr:0x02074054
func_02074064 kind:function(arm,size=0xb0) addr:0x02074064
func_02074114 kind:function(arm,size=0x4c) addr:0x02074114
func_02074160 kind:function(arm,size=0x70) addr:0x02074160
func_020741d0 kind:function(arm,size=0x8c) addr:0x020741d0
func_0207425c kind:function(arm,size=0x18) addr:0x0207425c
func_02074274 kind:function(arm,size=0x88) addr:0x02074274
func_020742fc kind:function(arm,size=0xf0) addr:0x020742fc
func_020743ec kind:function(arm,size=0x60) addr:0x020743ec
func_0207444c kind:function(arm,size=0x84) addr:0x0207444c
func_020744d0 kind:function(arm,size=0x80) addr:0x020744d0
func_02074550 kind:function(arm,size=0x7c) addr:0x02074550
func_020745cc kind:function(arm,size=0x1d8) addr:0x020745cc
func_020747a4 kind:function(arm,size=0x18) addr:0x020747a4
func_020747bc kind:function(arm,size=0x10) addr:0x020747bc
func_020747cc kind:function(arm,size=0x64) addr:0x020747cc
func_02074830 kind:function(arm,size=0x64) addr:0x02074830
func_02074894 kind:function(arm,size=0x64) addr:0x02074894
func_020748f8 kind:function(arm,size=0x64) addr:0x020748f8
func_0207495c kind:function(arm,size=0x64) addr:0x0207495c
func_020749c0 kind:function(arm,size=0x64) addr:0x020749c0
func_02074a24 kind:function(arm,size=0x64) addr:0x02074a24
func_02074a88 kind:function(arm,size=0x28) addr:0x02074a88
func_02074ab0 kind:function(arm,size=0x28) addr:0x02074ab0
func_02074ad8 kind:function(arm,size=0x78) addr:0x02074ad8
func_02074b50 kind:function(arm,size=0x20) addr:0x02074b50
func_02074b70 kind:function(arm,size=0x28) addr:0x02074b70
func_02074b98 kind:function(arm,size=0x1c) addr:0x02074b98
func_02074bb4 kind:function(arm,size=0xc) addr:0x02074bb4
func_02074bc0 kind:function(arm,size=0xc) addr:0x02074bc0
func_02074bcc kind:function(arm,size=0xc) addr:0x02074bcc
func_02074bd8 kind:function(arm,size=0x70) addr:0x02074bd8
func_02074c48 kind:function(arm,size=0x18) addr:0x02074c48
func_02074c60 kind:function(arm,size=0xbc) addr:0x02074c60
func_02074d1c kind:function(arm,size=0x68) addr:0x02074d1c
func_02074d84 kind:function(arm,size=0x10) addr:0x02074d84
func_02074d94 kind:function(arm,size=0x34) addr:0x02074d94
func_02074dc8 kind:function(arm,size=0x3c) addr:0x02074dc8
func_02074e04 kind:function(arm,size=0x20) addr:0x02074e04
func_02074e24 kind:function(arm,size=0x2c) addr:0x02074e24
func_02074e50 kind:function(arm,size=0x2c) addr:0x02074e50
func_02074e7c kind:function(arm,size=0x2c) addr:0x02074e7c
func_02074ea8 kind:function(arm,size=0x84) addr:0x02074ea8
func_02074f2c kind:function(arm,size=0x60) addr:0x02074f2c
func_02074f8c kind:function(arm,size=0x140) addr:0x02074f8c
func_020750cc kind:function(arm,size=0x8c) addr:0x020750cc
func_02075158 kind:function(arm,size=0xa0) addr:0x02075158
func_020751f8 kind:function(arm,size=0x6c) addr:0x020751f8
func_02075264 kind:function(arm,size=0x6c) addr:0x02075264
func_020752d0 kind:function(arm,size=0x6c) addr:0x020752d0
func_0207533c kind:function(arm,size=0x6c) addr:0x0207533c
func_020753a8 kind:function(arm,size=0x108) addr:0x020753a8
func_020754b0 kind:function(arm,size=0x58) addr:0x020754b0
func_02075508 kind:function(arm,size=0x28) addr:0x02075508
func_02075530 kind:function(arm,size=0x30) addr:0x02075530
func_02075560 kind:function(arm,size=0x30) addr:0x02075560
func_02075590 kind:function(arm,size=0x20) addr:0x02075590
func_020755b0 kind:function(arm,size=0x48) addr:0x020755b0
func_020755f8 kind:function(arm,size=0xc8) addr:0x020755f8
func_020756c0 kind:function(arm,size=0xc0) addr:0x020756c0
func_02075780 kind:function(arm,size=0x9c) addr:0x02075780
func_0207581c kind:function(arm,size=0x48) addr:0x0207581c
func_02075864 kind:function(arm,size=0x80) addr:0x02075864
func_020758e4 kind:function(arm,size=0xfc) addr:0x020758e4
func_020759e0 kind:function(arm,size=0xc4) addr:0x020759e0
func_02075aa4 kind:function(arm,size=0x104) addr:0x02075aa4
func_02075ba8 kind:function(arm,size=0xc8) addr:0x02075ba8
func_02075c70 kind:function(arm,size=0x5c) addr:0x02075c70
func_02075ccc kind:function(arm,size=0x20) addr:0x02075ccc
func_02075cec kind:function(arm,size=0x28) addr:0x02075cec
func_02075d14 kind:function(arm,size=0x1c) addr:0x02075d14
func_02075d30 kind:function(arm,size=0x14) addr:0x02075d30
func_02075d44 kind:function(arm,size=0xc) addr:0x02075d44
func_02075d50 kind:function(arm,size=0x18) addr:0x02075d50
func_02075d68 kind:function(arm,size=0x110) addr:0x02075d68
func_02075e78 kind:function(arm,size=0x8c) addr:0x02075e78
func_02075f04 kind:function(arm,size=0x2c) addr:0x02075f04
func_02075f30 kind:function(arm,size=0x270) addr:0x02075f30
func_020761a0 kind:function(arm,size=0x58) addr:0x020761a0
func_020761f8 kind:function(arm,size=0x98) addr:0x020761f8
func_02076290 kind:function(arm,size=0x64) addr:0x02076290
func_020762f4 kind:function(arm,size=0x38) addr:0x020762f4
func_0207632c kind:function(arm,size=0x24) addr:0x0207632c
func_02076350 kind:function(arm,size=0x60) addr:0x02076350
func_020763b0 kind:function(arm,size=0x70) addr:0x020763b0
func_02076420 kind:function(arm,size=0x50) addr:0x02076420
func_02076470 kind:function(arm,size=0x40) addr:0x02076470
func_020764b0 kind:function(arm,size=0x2c) addr:0x020764b0
func_020764dc kind:function(arm,size=0x9c) addr:0x020764dc
func_02076578 kind:function(arm,size=0x138) addr:0x02076578
func_020766b0 kind:function(arm,size=0x144) addr:0x020766b0
func_020767f4 kind:function(arm,size=0x828) addr:0x020767f4
func_0207701c kind:function(arm,size=0x80) addr:0x0207701c
func_0207709c kind:function(arm,size=0x74) addr:0x0207709c
func_02077110 kind:function(arm,size=0x10) addr:0x02077110
func_02077120 kind:function(arm,size=0x38) addr:0x02077120
func_02077158 kind:function(arm,size=0x10) addr:0x02077158
func_02077168 kind:function(arm,size=0x28) addr:0x02077168
func_02077190 kind:function(arm,size=0x4) addr:0x02077190
func_02077194 kind:function(arm,size=0x1c) addr:0x02077194
func_020771b0 kind:function(arm,size=0x4) addr:0x020771b0
func_020771b4 kind:function(arm,size=0x50) addr:0x020771b4
func_02077204 kind:function(arm,size=0x40) addr:0x02077204
func_02077244 kind:function(arm,size=0x18) addr:0x02077244
func_0207725c kind:function(arm,size=0x28) addr:0x0207725c
func_02077284 kind:function(arm,size=0x34) addr:0x02077284
func_020772b8 kind:function(arm,size=0x18) addr:0x020772b8
func_020772d0 kind:function(arm,size=0x18) addr:0x020772d0
func_020772e8 kind:function(arm,size=0x74) addr:0x020772e8
func_0207735c kind:function(arm,size=0x4) addr:0x0207735c
func_02077360 kind:function(arm,size=0x88) addr:0x02077360
func_020773e8 kind:function(arm,size=0x10) addr:0x020773e8
func_020773f8 kind:function(arm,size=0x10) addr:0x020773f8
func_02077408 kind:function(arm,size=0x10) addr:0x02077408
func_02077418 kind:function(arm,size=0x10) addr:0x02077418
func_02077428 kind:function(arm,size=0x10) addr:0x02077428
func_02077438 kind:function(arm,size=0x10) addr:0x02077438
func_02077448 kind:function(arm,size=0x10) addr:0x02077448
func_02077458 kind:function(arm,size=0x10) addr:0x02077458
func_02077468 kind:function(arm,size=0x18) addr:0x02077468
func_02077480 kind:function(arm,size=0x88) addr:0x02077480
func_02077508 kind:function(arm,size=0x8c) addr:0x02077508
func_02077594 kind:function(arm,size=0x48) addr:0x02077594
func_020775dc kind:function(arm,size=0x48) addr:0x020775dc
func_02077624 kind:function(arm,size=0x2c) addr:0x02077624
func_02077650 kind:function(arm,size=0x30) addr:0x02077650
func_02077680 kind:function(arm,size=0x30) addr:0x02077680
func_020776b0 kind:function(arm,size=0x2c) addr:0x020776b0
func_020776dc kind:function(arm,size=0x34) addr:0x020776dc
func_02077710 kind:function(arm,size=0xcc) addr:0x02077710
func_020777dc kind:function(arm,size=0x4c) addr:0x020777dc
func_02077828 kind:function(arm,size=0x10) addr:0x02077828
func_02077838 kind:function(arm,size=0x74) addr:0x02077838
func_020778ac kind:function(arm,size=0x10) addr:0x020778ac
func_020778bc kind:function(arm,size=0x6c) addr:0x020778bc
func_02077928 kind:function(arm,size=0x20) addr:0x02077928
func_02077948 kind:function(arm,size=0xc) addr:0x02077948
func_02077954 kind:function(arm,size=0x20) addr:0x02077954
func_02077974 kind:function(arm,size=0x18) addr:0x02077974
func_0207798c kind:function(arm,size=0x18) addr:0x0207798c
func_020779a4 kind:function(arm,size=0x1c) addr:0x020779a4
func_020779c0 kind:function(arm,size=0x1c) addr:0x020779c0
func_020779dc kind:function(arm,size=0x18) addr:0x020779dc
func_020779f4 kind:function(arm,size=0x18) addr:0x020779f4
func_02077a0c kind:function(arm,size=0x8) addr:0x02077a0c
func_02077a14 kind:function(arm,size=0x58) addr:0x02077a14
func_02077a6c kind:function(arm,size=0x30) addr:0x02077a6c
func_02077a9c kind:function(arm,size=0x54) addr:0x02077a9c
func_02077af0 kind:function(arm,size=0x58) addr:0x02077af0
func_02077b48 kind:function(arm,size=0x87c) addr:0x02077b48
func_020783c4 kind:function(arm,size=0x18) addr:0x020783c4
func_020783dc kind:function(arm,size=0x78) addr:0x020783dc
func_02078454 kind:function(arm,size=0x34) addr:0x02078454
func_02078488 kind:function(arm,size=0x54) addr:0x02078488
func_020784dc kind:function(arm,size=0x30) addr:0x020784dc
func_0207850c kind:function(arm,size=0x60) addr:0x0207850c
func_0207856c kind:function(arm,size=0x48) addr:0x0207856c
func_020785b4 kind:function(arm,size=0xc8) addr:0x020785b4
func_0207867c kind:function(arm,size=0x148) addr:0x0207867c
func_020787c4 kind:function(arm,size=0xfc) addr:0x020787c4
func_020788c0 kind:function(arm,size=0x20) addr:0x020788c0
func_020788e0 kind:function(arm,size=0x5c) addr:0x020788e0
func_0207893c kind:function(arm,size=0x38) addr:0x0207893c
func_02078974 kind:function(arm,size=0x5c) addr:0x02078974
func_020789d0 kind:function(arm,size=0x50) addr:0x020789d0
func_02078a20 kind:function(arm,size=0x68) addr:0x02078a20
func_02078a88 kind:function(arm,size=0x28) addr:0x02078a88
func_02078ab0 kind:function(arm,size=0x28) addr:0x02078ab0
func_02078ad8 kind:function(arm,size=0x1c) addr:0x02078ad8
func_02078af4 kind:function(arm,size=0xa8) addr:0x02078af4
func_02078b9c kind:function(arm,size=0x28) addr:0x02078b9c
func_02078bc4 kind:function(arm,size=0x10) addr:0x02078bc4
func_02078bd4 kind:function(arm,size=0x34) addr:0x02078bd4
func_02078c08 kind:function(arm,size=0x34) addr:0x02078c08
func_02078c3c kind:function(arm,size=0x8) addr:0x02078c3c
func_02078c44 kind:function(arm,size=0x6c) addr:0x02078c44
func_02078cb0 kind:function(arm,size=0x4c) addr:0x02078cb0
func_02078cfc kind:function(arm,size=0x44) addr:0x02078cfc
func_02078d40 kind:function(arm,size=0x8) addr:0x02078d40
func_02078d48 kind:function(arm,size=0x18) addr:0x02078d48
func_02078d60 kind:function(arm,size=0x28) addr:0x02078d60
func_02078d88 kind:function(arm,size=0x94) addr:0x02078d88
func_02078e1c kind:function(arm,size=0xa4) addr:0x02078e1c
func_02078ec0 kind:function(arm,size=0x9c) addr:0x02078ec0
func_02078f5c kind:function(arm,size=0x18) addr:0x02078f5c
func_02078f74 kind:function(arm,size=0x84) addr:0x02078f74
func_02078ff8 kind:function(arm,size=0x5c) addr:0x02078ff8
func_02079054 kind:function(arm,size=0x3c) addr:0x02079054
func_02079090 kind:function(arm,size=0x74) addr:0x02079090
func_02079104 kind:function(arm,size=0x24) addr:0x02079104
func_02079128 kind:function(arm,size=0x24) addr:0x02079128
func_0207914c kind:function(arm,size=0x2c) addr:0x0207914c
func_02079178 kind:function(arm,size=0x34) addr:0x02079178
func_020791ac kind:function(arm,size=0x1c) addr:0x020791ac
func_020791c8 kind:function(arm,size=0x1c) addr:0x020791c8
func_020791e4 kind:function(arm,size=0x24) addr:0x020791e4
func_02079208 kind:function(arm,size=0xc) addr:0x02079208
func_02079214 kind:function(arm,size=0x1c) addr:0x02079214
func_02079230 kind:function(arm,size=0x20) addr:0x02079230
func_02079250 kind:function(arm,size=0x48) addr:0x02079250
func_02079298 kind:function(arm,size=0x104) addr:0x02079298
func_0207939c kind:function(arm,size=0x6c) addr:0x0207939c
func_02079408 kind:function(arm,size=0x14) addr:0x02079408
func_0207941c kind:function(arm,size=0x14) addr:0x0207941c
func_02079430 kind:function(arm,size=0xe4) addr:0x02079430
func_02079514 kind:function(arm,size=0xa8) addr:0x02079514
func_020795bc kind:function(arm,size=0x14) addr:0x020795bc
func_020795d0 kind:function(arm,size=0x14) addr:0x020795d0
func_020795e4 kind:function(arm,size=0x6c) addr:0x020795e4
func_02079650 kind:function(arm,size=0x14) addr:0x02079650
func_02079664 kind:function(arm,size=0x1c) addr:0x02079664
func_02079680 kind:function(arm,size=0x28) addr:0x02079680
func_020796a8 kind:function(arm,size=0xa8) addr:0x020796a8
func_02079750 kind:function(arm,size=0x108) addr:0x02079750
func_02079858 kind:function(arm,size=0x68) addr:0x02079858
func_020798c0 kind:function(arm,size=0x14) addr:0x020798c0
func_020798d4 kind:function(arm,size=0x10) addr:0x020798d4
func_020798e4 kind:function(arm,size=0x10) addr:0x020798e4
func_020798f4 kind:function(arm,size=0x14) addr:0x020798f4
func_02079908 kind:function(arm,size=0x8) addr:0x02079908
func_02079910 kind:function(arm,size=0x8) addr:0x02079910
func_02079918 kind:function(arm,size=0x70) addr:0x02079918
func_02079988 kind:function(arm,size=0x74) addr:0x02079988
func_020799fc kind:function(arm,size=0x14) addr:0x020799fc
func_02079a10 kind:function(arm,size=0x90) addr:0x02079a10
func_02079aa0 kind:function(arm,size=0x54) addr:0x02079aa0
func_02079af4 kind:function(arm,size=0x1c) addr:0x02079af4
func_02079b10 kind:function(arm,size=0x78) addr:0x02079b10
func_02079b88 kind:function(arm,size=0x68) addr:0x02079b88
func_02079bf0 kind:function(arm,size=0xa0) addr:0x02079bf0
func_02079c90 kind:function(arm,size=0x10) addr:0x02079c90
func_02079ca0 kind:function(arm,size=0x48) addr:0x02079ca0
func_02079ce8 kind:function(arm,size=0x14) addr:0x02079ce8
func_02079cfc kind:function(arm,size=0x14) addr:0x02079cfc
func_02079d10 kind:function(arm,size=0x18) addr:0x02079d10
func_02079d28 kind:function(arm,size=0x14) addr:0x02079d28
func_02079d3c kind:function(arm,size=0x18) addr:0x02079d3c
func_02079d54 kind:function(arm,size=0xc) addr:0x02079d54
func_02079d60 kind:function(arm,size=0xc) addr:0x02079d60
func_02079d6c kind:function(arm,size=0xc) addr:0x02079d6c
func_02079d78 kind:function(arm,size=0x1c) addr:0x02079d78
__PROFILE_ENTRY kind:function(arm,size=0x4) addr:0x02079d94
__PROFILE_EXIT kind:function(arm,size=0x4) addr:0x02079d98
func_02079d9c kind:function(arm,size=0x54) addr:0x02079d9c
func_02079df0 kind:function(arm,size=0x34) addr:0x02079df0
func_02079e24 kind:function(arm,size=0x1c) addr:0x02079e24
func_02079e40 kind:function(arm,size=0x84) addr:0x02079e40
func_02079ec4 kind:function(arm,size=0x8) addr:0x02079ec4
func_02079ecc kind:function(arm,size=0x34) addr:0x02079ecc
func_02079f00 kind:function(arm,size=0x88) addr:0x02079f00
func_02079f88 kind:function(arm,size=0xd0) addr:0x02079f88
func_0207a058 kind:function(arm,size=0x10) addr:0x0207a058
func_0207a068 kind:function(arm,size=0xc) addr:0x0207a068
func_0207a074 kind:function(arm,size=0xc) addr:0x0207a074
func_0207a080 kind:function(arm,size=0x100) addr:0x0207a080
func_0207a180 kind:function(arm,size=0x4c) addr:0x0207a180
func_0207a1cc kind:function(arm,size=0x24) addr:0x0207a1cc
func_0207a1f0 kind:function(arm,size=0x88) addr:0x0207a1f0
func_0207a278 kind:function(arm,size=0x118) addr:0x0207a278
func_0207a390 kind:function(arm,size=0x20) addr:0x0207a390
func_0207a3b0 kind:function(arm,size=0x28) addr:0x0207a3b0
func_0207a3d8 kind:function(arm,size=0x20) addr:0x0207a3d8
func_0207a3f8 kind:function(arm,size=0x18) addr:0x0207a3f8
func_0207a410 kind:function(arm,size=0x18) addr:0x0207a410
func_0207a428 kind:function(arm,size=0x28) addr:0x0207a428
func_0207a450 kind:function(arm,size=0x28) addr:0x0207a450
func_0207a478 kind:function(arm,size=0x64) addr:0x0207a478
func_0207a4dc kind:function(arm,size=0x40) addr:0x0207a4dc
func_0207a51c kind:function(arm,size=0x20) addr:0x0207a51c
func_0207a53c kind:function(arm,size=0x20) addr:0x0207a53c
func_0207a55c kind:function(arm,size=0x28) addr:0x0207a55c
func_0207a584 kind:function(arm,size=0x20) addr:0x0207a584
func_0207a5a4 kind:function(arm,size=0x4c) addr:0x0207a5a4
func_0207a5f0 kind:function(arm,size=0x20) addr:0x0207a5f0
func_0207a610 kind:function(arm,size=0x20) addr:0x0207a610
func_0207a630 kind:function(arm,size=0x20) addr:0x0207a630
func_0207a650 kind:function(arm,size=0x28) addr:0x0207a650
func_0207a678 kind:function(arm,size=0x28) addr:0x0207a678
func_0207a6a0 kind:function(arm,size=0x44) addr:0x0207a6a0
func_0207a6e4 kind:function(arm,size=0x38) addr:0x0207a6e4
func_0207a71c kind:function(arm,size=0x14) addr:0x0207a71c
func_0207a730 kind:function(arm,size=0x14) addr:0x0207a730
func_0207a744 kind:function(arm,size=0xd4) addr:0x0207a744
func_0207a818 kind:function(arm,size=0x110) addr:0x0207a818
func_0207a928 kind:function(arm,size=0x88) addr:0x0207a928
func_0207a9b0 kind:function(arm,size=0x38) addr:0x0207a9b0
func_0207a9e8 kind:function(arm,size=0x1bc) addr:0x0207a9e8
func_0207aba4 kind:function(arm,size=0x6c) addr:0x0207aba4
func_0207ac10 kind:function(arm,size=0x2c) addr:0x0207ac10
func_0207ac3c kind:function(arm,size=0x50) addr:0x0207ac3c
func_0207ac8c kind:function(arm,size=0x3c) addr:0x0207ac8c
func_0207acc8 kind:function(arm,size=0x3c) addr:0x0207acc8
func_0207ad04 kind:function(arm,size=0x1c) addr:0x0207ad04
func_0207ad20 kind:function(arm,size=0x24) addr:0x0207ad20
func_0207ad44 kind:function(arm,size=0x60) addr:0x0207ad44
func_0207ada4 kind:function(arm,size=0x28) addr:0x0207ada4
func_0207adcc kind:function(arm,size=0x48) addr:0x0207adcc
func_0207ae14 kind:function(arm,size=0x40) addr:0x0207ae14
func_0207ae54 kind:function(arm,size=0x30) addr:0x0207ae54
func_0207ae84 kind:function(arm,size=0x20) addr:0x0207ae84
func_0207aea4 kind:function(arm,size=0x30) addr:0x0207aea4
func_0207aed4 kind:function(arm,size=0x44) addr:0x0207aed4
func_0207af18 kind:function(arm,size=0x2c) addr:0x0207af18
func_0207af44 kind:function(arm,size=0x3c) addr:0x0207af44
func_0207af80 kind:function(arm,size=0x28) addr:0x0207af80
func_0207afa8 kind:function(arm,size=0x7c) addr:0x0207afa8
func_0207b024 kind:function(arm,size=0x70) addr:0x0207b024
func_0207b094 kind:function(arm,size=0xcc) addr:0x0207b094
func_0207b160 kind:function(arm,size=0x98) addr:0x0207b160
func_0207b1f8 kind:function(arm,size=0x48) addr:0x0207b1f8
func_0207b240 kind:function(arm,size=0x20) addr:0x0207b240
func_0207b260 kind:function(arm,size=0x1b0) addr:0x0207b260
func_0207b410 kind:function(arm,size=0x8) addr:0x0207b410
func_0207b418 kind:function(arm,size=0x34) addr:0x0207b418
func_0207b44c kind:function(arm,size=0x3c) addr:0x0207b44c
func_0207b488 kind:function(arm,size=0x280) addr:0x0207b488
func_0207b708 kind:function(arm,size=0x78) addr:0x0207b708
func_0207b780 kind:function(arm,size=0x3c) addr:0x0207b780
func_0207b7bc kind:function(arm,size=0x40) addr:0x0207b7bc
func_0207b7fc kind:function(arm,size=0x8) addr:0x0207b7fc
func_0207b804 kind:function(arm,size=0x40) addr:0x0207b804
func_0207b844 kind:function(arm,size=0xa4) addr:0x0207b844
func_0207b8e8 kind:function(arm,size=0xc8) addr:0x0207b8e8
func_0207b9b0 kind:function(arm,size=0x94) addr:0x0207b9b0
func_0207ba44 kind:function(arm,size=0x60) addr:0x0207ba44
func_0207baa4 kind:function(arm,size=0x6c) addr:0x0207baa4
func_0207bb10 kind:function(arm,size=0x28) addr:0x0207bb10
func_0207bb38 kind:function(arm,size=0x54) addr:0x0207bb38
func_0207bb8c kind:function(arm,size=0x28) addr:0x0207bb8c
func_0207bbb4 kind:function(arm,size=0x7c) addr:0x0207bbb4
func_0207bc30 kind:function(arm,size=0x28) addr:0x0207bc30
func_0207bc58 kind:function(arm,size=0xac) addr:0x0207bc58
func_0207bd04 kind:function(arm,size=0x28) addr:0x0207bd04
func_0207bd2c kind:function(arm,size=0x5c) addr:0x0207bd2c
func_0207bd88 kind:function(arm,size=0x2c) addr:0x0207bd88
func_0207bdb4 kind:function(arm,size=0x230) addr:0x0207bdb4
func_0207bfe4 kind:function(arm,size=0xd4) addr:0x0207bfe4
func_0207c0b8 kind:function(arm,size=0x20) addr:0x0207c0b8
func_0207c0d8 kind:function(arm,size=0x1c) addr:0x0207c0d8
func_0207c0f4 kind:function(arm,size=0x14) addr:0x0207c0f4
func_0207c108 kind:function(arm,size=0x4c) addr:0x0207c108
func_0207c154 kind:function(arm,size=0x48) addr:0x0207c154
func_0207c19c kind:function(arm,size=0x28) addr:0x0207c19c
func_0207c1c4 kind:function(arm,size=0x18) addr:0x0207c1c4
func_0207c1dc kind:function(arm,size=0x18) addr:0x0207c1dc
func_0207c1f4 kind:function(arm,size=0x18) addr:0x0207c1f4
func_0207c20c kind:function(arm,size=0x18) addr:0x0207c20c
func_0207c224 kind:function(arm,size=0x18) addr:0x0207c224
func_0207c23c kind:function(arm,size=0x34) addr:0x0207c23c
func_0207c270 kind:function(arm,size=0x60) addr:0x0207c270
func_0207c2d0 kind:function(arm,size=0x68) addr:0x0207c2d0
func_0207c338 kind:function(arm,size=0x28) addr:0x0207c338
func_0207c360 kind:function(arm,size=0x24) addr:0x0207c360
func_0207c384 kind:function(arm,size=0x2c) addr:0x0207c384
func_0207c3b0 kind:function(arm,size=0x40) addr:0x0207c3b0
func_0207c3f0 kind:function(arm,size=0x2c) addr:0x0207c3f0
func_0207c41c kind:function(arm,size=0x1e4) addr:0x0207c41c
func_0207c600 kind:function(arm,size=0x70) addr:0x0207c600
func_0207c670 kind:function(arm,size=0x18) addr:0x0207c670
func_0207c688 kind:function(arm,size=0x58) addr:0x0207c688
func_0207c6e0 kind:function(arm,size=0xac) addr:0x0207c6e0
func_0207c78c kind:function(arm,size=0x70) addr:0x0207c78c
func_0207c7fc kind:function(arm,size=0x10) addr:0x0207c7fc
func_0207c80c kind:function(arm,size=0x1c) addr:0x0207c80c
func_0207c828 kind:function(arm,size=0x48) addr:0x0207c828
func_0207c870 kind:function(arm,size=0x94) addr:0x0207c870
func_0207c904 kind:function(arm,size=0x3ac) addr:0x0207c904
func_0207ccb0 kind:function(arm,size=0x1c) addr:0x0207ccb0
func_0207cccc kind:function(arm,size=0x30) addr:0x0207cccc
func_0207ccfc kind:function(arm,size=0x30) addr:0x0207ccfc
func_0207cd2c kind:function(arm,size=0x48) addr:0x0207cd2c
func_0207cd74 kind:function(arm,size=0x44) addr:0x0207cd74
func_0207cdb8 kind:function(arm,size=0xd8) addr:0x0207cdb8
func_0207ce90 kind:function(arm,size=0x6c) addr:0x0207ce90
func_0207cefc kind:function(arm,size=0xc4) addr:0x0207cefc
func_0207cfc0 kind:function(arm,size=0x20) addr:0x0207cfc0
func_0207cfe0 kind:function(arm,size=0x90) addr:0x0207cfe0
func_0207d070 kind:function(arm,size=0x90) addr:0x0207d070
func_0207d100 kind:function(arm,size=0x94) addr:0x0207d100
func_0207d194 kind:function(arm,size=0x5c) addr:0x0207d194
func_0207d1f0 kind:function(arm,size=0x38) addr:0x0207d1f0
func_0207d228 kind:function(arm,size=0x40) addr:0x0207d228
func_0207d268 kind:function(arm,size=0xdc) addr:0x0207d268
func_0207d344 kind:function(arm,size=0x50) addr:0x0207d344
func_0207d394 kind:function(arm,size=0x5c) addr:0x0207d394
func_0207d3f0 kind:function(arm,size=0x10) addr:0x0207d3f0
func_0207d400 kind:function(arm,size=0x40) addr:0x0207d400
func_0207d440 kind:function(arm,size=0xec) addr:0x0207d440
func_0207d52c kind:function(arm,size=0x40) addr:0x0207d52c
func_0207d56c kind:function(arm,size=0xcc) addr:0x0207d56c
func_0207d638 kind:function(arm,size=0xe8) addr:0x0207d638
func_0207d720 kind:function(arm,size=0x160) addr:0x0207d720
func_0207d880 kind:function(arm,size=0x68) addr:0x0207d880
func_0207d8e8 kind:function(arm,size=0x13c) addr:0x0207d8e8
func_0207da24 kind:function(arm,size=0x70) addr:0x0207da24
func_0207da94 kind:function(arm,size=0x254) addr:0x0207da94
func_0207dce8 kind:function(arm,size=0x48) addr:0x0207dce8
func_0207dd30 kind:function(arm,size=0x348) addr:0x0207dd30
func_0207e078 kind:function(arm,size=0xd8) addr:0x0207e078
func_0207e150 kind:function(arm,size=0x12c) addr:0x0207e150
func_0207e27c kind:function(arm,size=0xf4) addr:0x0207e27c
func_0207e370 kind:function(arm,size=0xcc) addr:0x0207e370
func_0207e43c kind:function(arm,size=0x154) addr:0x0207e43c
func_0207e590 kind:function(arm,size=0x54) addr:0x0207e590
func_0207e5e4 kind:function(arm,size=0x30) addr:0x0207e5e4
func_0207e614 kind:function(arm,size=0x1c) addr:0x0207e614
func_0207e630 kind:function(arm,size=0xc) addr:0x0207e630
func_0207e63c kind:function(arm,size=0x74) addr:0x0207e63c
func_0207e6b0 kind:function(arm,size=0xb8) addr:0x0207e6b0
func_0207e768 kind:function(arm,size=0x78) addr:0x0207e768
func_0207e7e0 kind:function(arm,size=0x4) addr:0x0207e7e0
func_0207e7e4 kind:function(arm,size=0x4) addr:0x0207e7e4
func_0207e7e8 kind:function(arm,size=0xc) addr:0x0207e7e8
func_0207e7f4 kind:function(arm,size=0xc) addr:0x0207e7f4
func_0207e800 kind:function(arm,size=0x4) addr:0x0207e800
func_0207e804 kind:function(arm,size=0xc) addr:0x0207e804
func_0207e810 kind:function(arm,size=0x14) addr:0x0207e810
func_0207e824 kind:function(arm,size=0x40) addr:0x0207e824
func_0207e864 kind:function(arm,size=0x28) addr:0x0207e864
func_0207e88c kind:function(arm,size=0x54) addr:0x0207e88c
func_0207e8e0 kind:function(arm,size=0x14) addr:0x0207e8e0
func_0207e8f4 kind:function(arm,size=0x24) addr:0x0207e8f4
func_0207e918 kind:function(arm,size=0x1c) addr:0x0207e918
func_0207e934 kind:function(arm,size=0xc0) addr:0x0207e934
func_0207e9f4 kind:function(arm,size=0x70) addr:0x0207e9f4
func_0207ea64 kind:function(arm,size=0x1c) addr:0x0207ea64
func_0207ea80 kind:function(arm,size=0x40) addr:0x0207ea80
func_0207eac0 kind:function(arm,size=0x38) addr:0x0207eac0
func_0207eaf8 kind:function(arm,size=0x18) addr:0x0207eaf8
func_0207eb10 kind:function(arm,size=0x18) addr:0x0207eb10
func_0207eb28 kind:function(arm,size=0x78) addr:0x0207eb28
func_0207eba0 kind:function(arm,size=0x20) addr:0x0207eba0
func_0207ebc0 kind:function(arm,size=0x14) addr:0x0207ebc0
func_0207ebd4 kind:function(arm,size=0x1c) addr:0x0207ebd4
func_0207ebf0 kind:function(arm,size=0x8) addr:0x0207ebf0
func_0207ebf8 kind:function(arm,size=0x10) addr:0x0207ebf8
func_0207ec08 kind:function(arm,size=0xa8) addr:0x0207ec08
func_0207ecb0 kind:function(arm,size=0x44) addr:0x0207ecb0
func_0207ecf4 kind:function(arm,size=0x30) addr:0x0207ecf4
func_0207ed24 kind:function(arm,size=0x18) addr:0x0207ed24
func_0207ed3c kind:function(arm,size=0x18) addr:0x0207ed3c
func_0207ed54 kind:function(arm,size=0x20) addr:0x0207ed54
func_0207ed74 kind:function(arm,size=0x484) addr:0x0207ed74
func_0207f1f8 kind:function(arm,size=0x70) addr:0x0207f1f8
func_0207f268 kind:function(arm,size=0x10) addr:0x0207f268
func_0207f278 kind:function(arm,size=0x8) addr:0x0207f278
func_0207f280 kind:function(arm,size=0x10) addr:0x0207f280
func_0207f290 kind:function(arm,size=0x10) addr:0x0207f290
func_0207f2a0 kind:function(arm,size=0x14) addr:0x0207f2a0
func_0207f2b4 kind:function(arm,size=0x20) addr:0x0207f2b4
func_0207f2d4 kind:function(arm,size=0x1c) addr:0x0207f2d4
func_0207f2f0 kind:function(arm,size=0x30) addr:0x0207f2f0
func_0207f320 kind:function(arm,size=0x20) addr:0x0207f320
func_0207f340 kind:function(arm,size=0x20) addr:0x0207f340
func_0207f360 kind:function(arm,size=0x3c) addr:0x0207f360
func_0207f39c kind:function(arm,size=0x20) addr:0x0207f39c
func_0207f3bc kind:function(arm,size=0x44) addr:0x0207f3bc
func_0207f400 kind:function(arm,size=0xc) addr:0x0207f400
func_0207f40c kind:function(arm,size=0x40) addr:0x0207f40c
func_0207f44c kind:function(arm,size=0x58) addr:0x0207f44c
func_0207f4a4 kind:function(arm,size=0x20) addr:0x0207f4a4
func_0207f4c4 kind:function(arm,size=0x10) addr:0x0207f4c4
func_0207f4d4 kind:function(arm,size=0x58) addr:0x0207f4d4
func_0207f52c kind:function(arm,size=0x1c) addr:0x0207f52c
func_0207f548 kind:function(arm,size=0x48) addr:0x0207f548
func_0207f590 kind:function(arm,size=0x38) addr:0x0207f590
func_0207f5c8 kind:function(arm,size=0x160) addr:0x0207f5c8
func_0207f728 kind:function(arm,size=0x54) addr:0x0207f728
func_0207f77c kind:function(arm,size=0x64) addr:0x0207f77c
func_0207f7e0 kind:function(arm,size=0x54) addr:0x0207f7e0
func_0207f834 kind:function(arm,size=0xc) addr:0x0207f834
func_0207f840 kind:function(arm,size=0xc) addr:0x0207f840
func_0207f84c kind:function(arm,size=0x10) addr:0x0207f84c
func_0207f85c kind:function(arm,size=0x10) addr:0x0207f85c
func_0207f86c kind:function(arm,size=0x10) addr:0x0207f86c
func_0207f87c kind:function(arm,size=0x10) addr:0x0207f87c
func_0207f88c kind:function(arm,size=0x4) addr:0x0207f88c
func_0207f890 kind:function(arm,size=0x8) addr:0x0207f890
func_0207f898 kind:function(arm,size=0x14) addr:0x0207f898
func_0207f8ac kind:function(arm,size=0x18) addr:0x0207f8ac
func_0207f8c4 kind:function(arm,size=0x8) addr:0x0207f8c4
func_0207f8cc kind:function(arm,size=0x10) addr:0x0207f8cc
func_0207f8dc kind:function(arm,size=0x24) addr:0x0207f8dc
func_0207f900 kind:function(arm,size=0x24) addr:0x0207f900
func_0207f924 kind:function(arm,size=0x38) addr:0x0207f924
func_0207f95c kind:function(arm,size=0x38) addr:0x0207f95c
func_0207f994 kind:function(arm,size=0x24) addr:0x0207f994
func_0207f9b8 kind:function(arm,size=0x2d0) addr:0x0207f9b8
func_0207fc88 kind:function(arm,size=0x3b0) addr:0x0207fc88
func_02080038 kind:function(arm,size=0x60) addr:0x02080038
func_02080098 kind:function(arm,size=0x28) addr:0x02080098
func_020800c0 kind:function(arm,size=0x40) addr:0x020800c0
func_02080100 kind:function(arm,size=0x10) addr:0x02080100
func_02080110 kind:function(arm,size=0xc) addr:0x02080110
func_0208011c kind:function(arm,size=0x14) addr:0x0208011c
func_02080130 kind:function(arm,size=0x2c) addr:0x02080130
func_0208015c kind:function(arm,size=0x90) addr:0x0208015c
func_020801ec kind:function(arm,size=0x30) addr:0x020801ec
func_0208021c kind:function(arm,size=0x5c) addr:0x0208021c
func_02080278 kind:function(arm,size=0x10) addr:0x02080278
func_02080288 kind:function(arm,size=0x18) addr:0x02080288
func_020802a0 kind:function(arm,size=0x14) addr:0x020802a0
func_020802b4 kind:function(arm,size=0x80) addr:0x020802b4
func_02080334 kind:function(arm,size=0x84) addr:0x02080334
func_020803b8 kind:function(arm,size=0x34) addr:0x020803b8
func_020803ec kind:function(arm,size=0x44) addr:0x020803ec
func_02080430 kind:function(arm,size=0x14) addr:0x02080430
func_02080444 kind:function(arm,size=0x178) addr:0x02080444
func_020805bc kind:function(arm,size=0x50) addr:0x020805bc
func_0208060c kind:function(arm,size=0x20) addr:0x0208060c
func_0208062c kind:function(arm,size=0x40) addr:0x0208062c
func_0208066c kind:function(arm,size=0x28) addr:0x0208066c
func_02080694 kind:function(arm,size=0x48) addr:0x02080694
func_020806dc kind:function(arm,size=0x1f0) addr:0x020806dc
func_020808cc kind:function(arm,size=0x19c) addr:0x020808cc
func_02080a68 kind:function(arm,size=0x114) addr:0x02080a68
func_02080b7c kind:function(arm,size=0x24) addr:0x02080b7c
func_02080ba0 kind:function(arm,size=0x80) addr:0x02080ba0
func_02080c20 kind:function(arm,size=0x64) addr:0x02080c20
func_02080c84 kind:function(arm,size=0x68) addr:0x02080c84
func_02080cec kind:function(arm,size=0x5c) addr:0x02080cec
_ZN7dssrand4randEi kind:function(arm,size=0x38) addr:0x02080d48
func_02080d80 kind:function(arm,size=0x14) addr:0x02080d80
func_02080d94 kind:function(arm,size=0x44) addr:0x02080d94
func_02080dd8 kind:function(arm,size=0x70) addr:0x02080dd8
func_02080e48 kind:function(arm,size=0x1c) addr:0x02080e48
func_02080e64 kind:function(arm,size=0x14) addr:0x02080e64
func_02080e78 kind:function(arm,size=0x18) addr:0x02080e78
func_02080e90 kind:function(arm,size=0xac) addr:0x02080e90
func_02080f3c kind:function(arm,size=0x20) addr:0x02080f3c
func_02080f5c kind:function(arm,size=0x2b0) addr:0x02080f5c
func_0208120c kind:function(arm,size=0x10) addr:0x0208120c
func_0208121c kind:function(arm,size=0x38) addr:0x0208121c
func_02081254 kind:function(arm,size=0x10) addr:0x02081254
func_02081264 kind:function(arm,size=0x10) addr:0x02081264
func_02081274 kind:function(arm,size=0x10) addr:0x02081274
func_02081284 kind:function(arm,size=0xe0) addr:0x02081284
func_02081364 kind:function(arm,size=0x7c) addr:0x02081364
func_020813e0 kind:function(arm,size=0x3c) addr:0x020813e0
func_0208141c kind:function(arm,size=0x38) addr:0x0208141c
func_02081454 kind:function(arm,size=0xe0) addr:0x02081454
func_02081534 kind:function(arm,size=0xd4) addr:0x02081534
func_02081608 kind:function(arm,size=0xd4) addr:0x02081608
func_020816dc kind:function(arm,size=0x30) addr:0x020816dc
func_0208170c kind:function(arm,size=0x10) addr:0x0208170c
func_0208171c kind:function(arm,size=0xc) addr:0x0208171c
func_02081728 kind:function(arm,size=0x24) addr:0x02081728
func_0208174c kind:function(arm,size=0x10) addr:0x0208174c
func_0208175c kind:function(arm,size=0x10) addr:0x0208175c
func_0208176c kind:function(arm,size=0x28) addr:0x0208176c
func_02081794 kind:function(arm,size=0x28) addr:0x02081794
func_020817bc kind:function(arm,size=0x1c) addr:0x020817bc
func_020817d8 kind:function(arm,size=0x3c) addr:0x020817d8
func_02081814 kind:function(arm,size=0x178) addr:0x02081814
func_0208198c kind:function(arm,size=0x1c) addr:0x0208198c
func_020819a8 kind:function(arm,size=0x90) addr:0x020819a8
func_02081a38 kind:function(arm,size=0x78) addr:0x02081a38
func_02081ab0 kind:function(arm,size=0x14) addr:0x02081ab0
func_02081ac4 kind:function(arm,size=0x8) addr:0x02081ac4
func_02081acc kind:function(arm,size=0x44) addr:0x02081acc
func_02081b10 kind:function(arm,size=0x4) addr:0x02081b10
func_02081b14 kind:function(arm,size=0x2b0) addr:0x02081b14
func_02081dc4 kind:function(arm,size=0x58) addr:0x02081dc4
func_02081e1c kind:function(arm,size=0x4) addr:0x02081e1c
func_02081e20 kind:function(arm,size=0x324) addr:0x02081e20
func_02082144 kind:function(arm,size=0x8) addr:0x02082144
func_0208214c kind:function(arm,size=0xc) addr:0x0208214c
func_02082158 kind:function(arm,size=0x38) addr:0x02082158
func_02082190 kind:function(arm,size=0x4) addr:0x02082190
func_02082194 kind:function(arm,size=0x248) addr:0x02082194
func_020823dc kind:function(arm,size=0x3c) addr:0x020823dc
func_02082418 kind:function(arm,size=0x4) addr:0x02082418
func_0208241c kind:function(arm,size=0x4) addr:0x0208241c
func_02082420 kind:function(arm,size=0x40) addr:0x02082420
func_02082460 kind:function(arm,size=0x4) addr:0x02082460
func_02082464 kind:function(arm,size=0x1e0) addr:0x02082464
func_02082644 kind:function(arm,size=0x4) addr:0x02082644
func_02082648 kind:function(arm,size=0x30) addr:0x02082648
func_02082678 kind:function(arm,size=0x1c) addr:0x02082678
func_02082694 kind:function(arm,size=0x18) addr:0x02082694
func_020826ac kind:function(arm,size=0x1c) addr:0x020826ac
func_020826c8 kind:function(arm,size=0x10) addr:0x020826c8
func_020826d8 kind:function(arm,size=0x24) addr:0x020826d8
func_020826fc kind:function(arm,size=0x28) addr:0x020826fc
func_02082724 kind:function(arm,size=0x70) addr:0x02082724
func_02082794 kind:function(arm,size=0x5c) addr:0x02082794
func_020827f0 kind:function(arm,size=0x78) addr:0x020827f0
func_02082868 kind:function(arm,size=0x178) addr:0x02082868
func_020829e0 kind:function(arm,size=0x50) addr:0x020829e0
func_02082a30 kind:function(arm,size=0x74) addr:0x02082a30
func_02082aa4 kind:function(arm,size=0x74) addr:0x02082aa4
func_02082b18 kind:function(arm,size=0x64) addr:0x02082b18
func_02082b7c kind:function(arm,size=0x14) addr:0x02082b7c
func_02082b90 kind:function(arm,size=0x24) addr:0x02082b90
func_02082bb4 kind:function(arm,size=0x48) addr:0x02082bb4
func_02082bfc kind:function(arm,size=0x14) addr:0x02082bfc
func_02082c10 kind:function(arm,size=0xdc) addr:0x02082c10
func_02082cec kind:function(arm,size=0xdc) addr:0x02082cec
func_02082dc8 kind:function(arm,size=0x84) addr:0x02082dc8
func_02082e4c kind:function(arm,size=0xd4) addr:0x02082e4c
func_02082f20 kind:function(arm,size=0x100) addr:0x02082f20
func_02083020 kind:function(arm,size=0x4) addr:0x02083020
func_02083024 kind:function(arm,size=0x10) addr:0x02083024
func_02083034 kind:function(arm,size=0x8) addr:0x02083034
func_0208303c kind:function(arm,size=0x10) addr:0x0208303c
func_0208304c kind:function(arm,size=0x8) addr:0x0208304c
func_02083054 kind:function(arm,size=0x1c) addr:0x02083054
func_02083070 kind:function(arm,size=0x8) addr:0x02083070
func_02083078 kind:function(arm,size=0x38) addr:0x02083078
func_020830b0 kind:function(arm,size=0x8) addr:0x020830b0
func_020830b8 kind:function(arm,size=0x8) addr:0x020830b8
func_020830c0 kind:function(arm,size=0x8) addr:0x020830c0
func_020830c8 kind:function(arm,size=0xc) addr:0x020830c8
func_020830d4 kind:function(arm,size=0x48) addr:0x020830d4
func_0208311c kind:function(arm,size=0x10) addr:0x0208311c
func_0208312c kind:function(arm,size=0x8) addr:0x0208312c
func_02083134 kind:function(arm,size=0x8) addr:0x02083134
func_0208313c kind:function(arm,size=0x9c) addr:0x0208313c
func_020831d8 kind:function(arm,size=0x10) addr:0x020831d8
func_020831e8 kind:function(arm,size=0xa4) addr:0x020831e8
func_0208328c kind:function(arm,size=0x24) addr:0x0208328c
func_020832b0 kind:function(arm,size=0x28) addr:0x020832b0
func_020832d8 kind:function(arm,size=0x6c) addr:0x020832d8
func_02083344 kind:function(arm,size=0x10) addr:0x02083344
func_02083354 kind:function(arm,size=0xc) addr:0x02083354
func_02083360 kind:function(arm,size=0xc) addr:0x02083360
func_0208336c kind:function(arm,size=0x18) addr:0x0208336c
func_02083384 kind:function(arm,size=0xd0) addr:0x02083384
func_02083454 kind:function(arm,size=0xc) addr:0x02083454
func_02083460 kind:function(arm,size=0xd0) addr:0x02083460
func_02083530 kind:function(arm,size=0x98) addr:0x02083530
func_020835c8 kind:function(arm,size=0x8) addr:0x020835c8
func_020835d0 kind:function(arm,size=0x8) addr:0x020835d0
func_020835d8 kind:function(arm,size=0x10) addr:0x020835d8
func_020835e8 kind:function(arm,size=0x5c) addr:0x020835e8
func_02083644 kind:function(arm,size=0x4) addr:0x02083644
func_02083648 kind:function(arm,size=0x8) addr:0x02083648
func_02083650 kind:function(arm,size=0x8) addr:0x02083650
func_02083658 kind:function(arm,size=0x28) addr:0x02083658
func_02083680 kind:function(arm,size=0x28) addr:0x02083680
func_020836a8 kind:function(arm,size=0x18) addr:0x020836a8
func_020836c0 kind:function(arm,size=0x18) addr:0x020836c0
func_020836d8 kind:function(arm,size=0x8) addr:0x020836d8
func_020836e0 kind:function(arm,size=0x8) addr:0x020836e0
func_020836e8 kind:function(arm,size=0x1c) addr:0x020836e8
func_02083704 kind:function(arm,size=0x28) addr:0x02083704
func_0208372c kind:function(arm,size=0x8) addr:0x0208372c
func_02083734 kind:function(arm,size=0x9c) addr:0x02083734
func_020837d0 kind:function(arm,size=0x6c) addr:0x020837d0
func_0208383c kind:function(arm,size=0xc) addr:0x0208383c
func_02083848 kind:function(arm,size=0x174) addr:0x02083848
func_020839bc kind:function(arm,size=0x160) addr:0x020839bc
func_02083b1c kind:function(arm,size=0x1e4) addr:0x02083b1c
func_02083d00 kind:function(arm,size=0xa8) addr:0x02083d00
func_02083da8 kind:function(arm,size=0x178) addr:0x02083da8
func_02083f20 kind:function(arm,size=0x30) addr:0x02083f20
func_02083f50 kind:function(arm,size=0x178) addr:0x02083f50
func_020840c8 kind:function(arm,size=0x6c) addr:0x020840c8
func_02084134 kind:function(arm,size=0x8) addr:0x02084134
func_0208413c kind:function(arm,size=0x6c) addr:0x0208413c
func_020841a8 kind:function(arm,size=0x8) addr:0x020841a8
func_020841b0 kind:function(arm,size=0x24) addr:0x020841b0
func_020841d4 kind:function(arm,size=0xe4) addr:0x020841d4
func_020842b8 kind:function(arm,size=0x8) addr:0x020842b8
func_020842c0 kind:function(arm,size=0x114) addr:0x020842c0
func_020843d4 kind:function(arm,size=0x78) addr:0x020843d4
func_0208444c kind:function(arm,size=0x74) addr:0x0208444c
func_020844c0 kind:function(arm,size=0x74) addr:0x020844c0
func_02084534 kind:function(arm,size=0x14) addr:0x02084534
func_02084548 kind:function(arm,size=0x24) addr:0x02084548
func_0208456c kind:function(arm,size=0xc) addr:0x0208456c
func_02084578 kind:function(arm,size=0x18) addr:0x02084578
func_02084590 kind:function(arm,size=0x258) addr:0x02084590
func_020847e8 kind:function(arm,size=0xc0) addr:0x020847e8
func_020848a8 kind:function(arm,size=0xbc) addr:0x020848a8
func_02084964 kind:function(arm,size=0xb8) addr:0x02084964
func_02084a1c kind:function(arm,size=0x25c) addr:0x02084a1c
func_02084c78 kind:function(arm,size=0x74) addr:0x02084c78
func_02084cec kind:function(arm,size=0xe8) addr:0x02084cec
func_02084dd4 kind:function(arm,size=0x10) addr:0x02084dd4
func_02084de4 kind:function(arm,size=0xa8) addr:0x02084de4
func_02084e8c kind:function(arm,size=0x10) addr:0x02084e8c
func_02084e9c kind:function(arm,size=0x8) addr:0x02084e9c
func_02084ea4 kind:function(arm,size=0x1c) addr:0x02084ea4
func_02084ec0 kind:function(arm,size=0x10) addr:0x02084ec0
func_02084ed0 kind:function(arm,size=0x10) addr:0x02084ed0
func_02084ee0 kind:function(arm,size=0x10) addr:0x02084ee0
func_02084ef0 kind:function(arm,size=0xc) addr:0x02084ef0
func_02084efc kind:function(arm,size=0x54) addr:0x02084efc
func_02084f50 kind:function(arm,size=0x54) addr:0x02084f50
func_02084fa4 kind:function(arm,size=0x174) addr:0x02084fa4
func_02085118 kind:function(arm,size=0x28) addr:0x02085118
func_02085140 kind:function(arm,size=0x2c) addr:0x02085140
func_0208516c kind:function(arm,size=0x18) addr:0x0208516c
func_02085184 kind:function(arm,size=0x3c) addr:0x02085184
func_020851c0 kind:function(arm,size=0x28) addr:0x020851c0
func_020851e8 kind:function(arm,size=0x34) addr:0x020851e8
func_0208521c kind:function(arm,size=0x38) addr:0x0208521c
func_02085254 kind:function(arm,size=0x44) addr:0x02085254
func_02085298 kind:function(arm,size=0x30) addr:0x02085298
func_020852c8 kind:function(arm,size=0x28) addr:0x020852c8
func_020852f0 kind:function(arm,size=0x3c) addr:0x020852f0
func_0208532c kind:function(arm,size=0x1c) addr:0x0208532c
func_02085348 kind:function(arm,size=0x28) addr:0x02085348
func_02085370 kind:function(arm,size=0x168) addr:0x02085370
func_020854d8 kind:function(arm,size=0x5c) addr:0x020854d8
func_02085534 kind:function(arm,size=0x4) addr:0x02085534
func_02085538 kind:function(arm,size=0x164) addr:0x02085538
func_0208569c kind:function(arm,size=0x10) addr:0x0208569c
func_020856ac kind:function(arm,size=0x10) addr:0x020856ac
func_020856bc kind:function(arm,size=0x10) addr:0x020856bc
func_020856cc kind:function(arm,size=0x14) addr:0x020856cc
func_020856e0 kind:function(arm,size=0xb4) addr:0x020856e0
func_02085794 kind:function(arm,size=0x4) addr:0x02085794
func_02085798 kind:function(arm,size=0x10) addr:0x02085798
func_020857a8 kind:function(arm,size=0x20) addr:0x020857a8
func_020857c8 kind:function(arm,size=0x78) addr:0x020857c8
func_02085840 kind:function(arm,size=0x214) addr:0x02085840
func_02085a54 kind:function(arm,size=0x334) addr:0x02085a54
func_02085d88 kind:function(arm,size=0x58) addr:0x02085d88
func_02085de0 kind:function(arm,size=0x204) addr:0x02085de0
func_02085fe4 kind:function(arm,size=0x18) addr:0x02085fe4
func_02085ffc kind:function(arm,size=0x1c) addr:0x02085ffc
func_02086018 kind:function(arm,size=0x1c) addr:0x02086018
func_02086034 kind:function(arm,size=0x84) addr:0x02086034
func_020860b8 kind:function(arm,size=0xdc) addr:0x020860b8
func_02086194 kind:function(arm,size=0x18) addr:0x02086194
func_020861ac kind:function(arm,size=0x4) addr:0x020861ac
func_020861b0 kind:function(arm,size=0x14) addr:0x020861b0
func_020861c4 kind:function(arm,size=0xb4) addr:0x020861c4
func_02086278 kind:function(arm,size=0x4) addr:0x02086278
func_0208627c kind:function(arm,size=0x24) addr:0x0208627c
func_020862a0 kind:function(arm,size=0x1c) addr:0x020862a0
func_020862bc kind:function(arm,size=0xc) addr:0x020862bc
func_020862c8 kind:function(arm,size=0x18) addr:0x020862c8
func_020862e0 kind:function(arm,size=0x38) addr:0x020862e0
func_02086318 kind:function(arm,size=0x3c) addr:0x02086318
func_02086354 kind:function(arm,size=0xc) addr:0x02086354
func_02086360 kind:function(arm,size=0x18) addr:0x02086360
func_02086378 kind:function(arm,size=0xdc) addr:0x02086378
func_02086454 kind:function(arm,size=0x18) addr:0x02086454
func_0208646c kind:function(arm,size=0x24) addr:0x0208646c
func_02086490 kind:function(arm,size=0x4) addr:0x02086490
func_02086494 kind:function(arm,size=0x18) addr:0x02086494
func_020864ac kind:function(arm,size=0x34) addr:0x020864ac
func_020864e0 kind:function(arm,size=0xc) addr:0x020864e0
func_020864ec kind:function(arm,size=0x1c) addr:0x020864ec
func_02086508 kind:function(arm,size=0x28) addr:0x02086508
func_02086530 kind:function(arm,size=0x24) addr:0x02086530
func_02086554 kind:function(arm,size=0x24) addr:0x02086554
func_02086578 kind:function(arm,size=0x2c) addr:0x02086578
func_020865a4 kind:function(arm,size=0x10) addr:0x020865a4
func_020865b4 kind:function(arm,size=0x30) addr:0x020865b4
func_020865e4 kind:function(arm,size=0xc) addr:0x020865e4
func_020865f0 kind:function(arm,size=0x4) addr:0x020865f0
func_020865f4 kind:function(arm,size=0x40) addr:0x020865f4
func_02086634 kind:function(arm,size=0xa4) addr:0x02086634
func_020866d8 kind:function(arm,size=0xc) addr:0x020866d8
func_020866e4 kind:function(arm,size=0x3c) addr:0x020866e4
func_02086720 kind:function(arm,size=0x28) addr:0x02086720
func_02086748 kind:function(arm,size=0x4) addr:0x02086748
func_0208674c kind:function(arm,size=0x4) addr:0x0208674c
func_02086750 kind:function(arm,size=0xc) addr:0x02086750
func_0208675c kind:function(arm,size=0x28) addr:0x0208675c
func_02086784 kind:function(arm,size=0xc) addr:0x02086784
func_02086790 kind:function(arm,size=0x4) addr:0x02086790
func_02086794 kind:function(arm,size=0x4) addr:0x02086794
func_02086798 kind:function(arm,size=0xd0) addr:0x02086798
func_02086868 kind:function(arm,size=0x74) addr:0x02086868
func_020868dc kind:function(arm,size=0x8c) addr:0x020868dc
func_02086968 kind:function(arm,size=0x84) addr:0x02086968
func_020869ec kind:function(arm,size=0xa8) addr:0x020869ec
func_02086a94 kind:function(arm,size=0x8) addr:0x02086a94
func_02086a9c kind:function(arm,size=0x8) addr:0x02086a9c
func_02086aa4 kind:function(arm,size=0x8) addr:0x02086aa4
func_02086aac kind:function(arm,size=0x8) addr:0x02086aac
func_02086ab4 kind:function(arm,size=0x8) addr:0x02086ab4
func_02086abc kind:function(arm,size=0x38) addr:0x02086abc
func_02086af4 kind:function(arm,size=0x34) addr:0x02086af4
func_02086b28 kind:function(arm,size=0x14) addr:0x02086b28
func_02086b3c kind:function(arm,size=0x2c) addr:0x02086b3c
func_02086b68 kind:function(arm,size=0x70) addr:0x02086b68
func_02086bd8 kind:function(arm,size=0x40) addr:0x02086bd8
func_02086c18 kind:function(arm,size=0x4c) addr:0x02086c18
func_02086c64 kind:function(arm,size=0x4c) addr:0x02086c64
func_02086cb0 kind:function(arm,size=0x18) addr:0x02086cb0
func_02086cc8 kind:function(arm,size=0x4) addr:0x02086cc8
func_02086ccc kind:function(arm,size=0x80) addr:0x02086ccc
func_02086d4c kind:function(arm,size=0x2c) addr:0x02086d4c
func_02086d78 kind:function(arm,size=0x34) addr:0x02086d78
func_02086dac kind:function(arm,size=0x38) addr:0x02086dac
func_02086de4 kind:function(arm,size=0x6c) addr:0x02086de4
func_02086e50 kind:function(arm,size=0x10) addr:0x02086e50
func_02086e60 kind:function(arm,size=0x10) addr:0x02086e60
func_02086e70 kind:function(arm,size=0xfc) addr:0x02086e70
func_02086f6c kind:function(arm,size=0x190) addr:0x02086f6c
func_020870fc kind:function(arm,size=0xc) addr:0x020870fc
func_02087108 kind:function(arm,size=0x8) addr:0x02087108
func_02087110 kind:function(arm,size=0x10) addr:0x02087110
func_02087120 kind:function(arm,size=0x28) addr:0x02087120
func_02087148 kind:function(arm,size=0xc) addr:0x02087148
func_02087154 kind:function(arm,size=0xc) addr:0x02087154
func_02087160 kind:function(arm,size=0x8) addr:0x02087160
func_02087168 kind:function(arm,size=0x24) addr:0x02087168
func_0208718c kind:function(arm,size=0xc) addr:0x0208718c
func_02087198 kind:function(arm,size=0x24) addr:0x02087198
func_020871bc kind:function(arm,size=0x28) addr:0x020871bc
func_020871e4 kind:function(arm,size=0x10) addr:0x020871e4
func_020871f4 kind:function(arm,size=0x14) addr:0x020871f4
func_02087208 kind:function(arm,size=0x24) addr:0x02087208
func_0208722c kind:function(arm,size=0x28) addr:0x0208722c
func_02087254 kind:function(arm,size=0x14) addr:0x02087254
func_02087268 kind:function(arm,size=0x38) addr:0x02087268
func_020872a0 kind:function(arm,size=0x38) addr:0x020872a0
func_020872d8 kind:function(arm,size=0x24) addr:0x020872d8
func_020872fc kind:function(arm,size=0x24) addr:0x020872fc
func_02087320 kind:function(arm,size=0x28) addr:0x02087320
func_02087348 kind:function(arm,size=0x28) addr:0x02087348
func_02087370 kind:function(arm,size=0x1c) addr:0x02087370
func_0208738c kind:function(arm,size=0x1c) addr:0x0208738c
func_020873a8 kind:function(arm,size=0x18) addr:0x020873a8
func_020873c0 kind:function(arm,size=0x18) addr:0x020873c0
func_020873d8 kind:function(arm,size=0x18) addr:0x020873d8
func_020873f0 kind:function(arm,size=0x18) addr:0x020873f0
func_02087408 kind:function(arm,size=0x18) addr:0x02087408
func_02087420 kind:function(arm,size=0x18) addr:0x02087420
func_02087438 kind:function(arm,size=0x20) addr:0x02087438
func_02087458 kind:function(arm,size=0x1c) addr:0x02087458
func_02087474 kind:function(arm,size=0x10) addr:0x02087474
func_02087484 kind:function(arm,size=0xc) addr:0x02087484
func_02087490 kind:function(arm,size=0xc) addr:0x02087490
func_0208749c kind:function(arm,size=0x24) addr:0x0208749c
func_020874c0 kind:function(arm,size=0xc) addr:0x020874c0
func_020874cc kind:function(arm,size=0xc) addr:0x020874cc
func_020874d8 kind:function(arm,size=0x2c) addr:0x020874d8
func_02087504 kind:function(arm,size=0x24) addr:0x02087504
func_02087528 kind:function(arm,size=0x10) addr:0x02087528
func_02087538 kind:function(arm,size=0x4) addr:0x02087538
func_0208753c kind:function(arm,size=0x28) addr:0x0208753c
func_02087564 kind:function(arm,size=0x2c) addr:0x02087564
func_02087590 kind:function(arm,size=0x14) addr:0x02087590
func_020875a4 kind:function(arm,size=0x14) addr:0x020875a4
func_020875b8 kind:function(arm,size=0x34) addr:0x020875b8
func_020875ec kind:function(arm,size=0x24) addr:0x020875ec
func_02087610 kind:function(arm,size=0x24) addr:0x02087610
func_02087634 kind:function(arm,size=0x40) addr:0x02087634
func_02087674 kind:function(arm,size=0x34) addr:0x02087674
func_020876a8 kind:function(arm,size=0x34) addr:0x020876a8
func_020876dc kind:function(arm,size=0x18) addr:0x020876dc
func_020876f4 kind:function(arm,size=0x28) addr:0x020876f4
func_0208771c kind:function(arm,size=0x18) addr:0x0208771c
func_02087734 kind:function(arm,size=0x84) addr:0x02087734
func_020877b8 kind:function(arm,size=0x48) addr:0x020877b8
func_02087800 kind:function(arm,size=0x50) addr:0x02087800
func_02087850 kind:function(arm,size=0x68) addr:0x02087850
func_020878b8 kind:function(arm,size=0x30) addr:0x020878b8
func_020878e8 kind:function(arm,size=0x18) addr:0x020878e8
func_02087900 kind:function(arm,size=0x40) addr:0x02087900
func_02087940 kind:function(arm,size=0x9c) addr:0x02087940
func_020879dc kind:function(arm,size=0x98) addr:0x020879dc
func_02087a74 kind:function(arm,size=0x15c) addr:0x02087a74
func_02087bd0 kind:function(arm,size=0x30) addr:0x02087bd0
func_02087c00 kind:function(arm,size=0x98) addr:0x02087c00
func_02087c98 kind:function(arm,size=0xb0) addr:0x02087c98
func_02087d48 kind:function(arm,size=0xc0) addr:0x02087d48
func_02087e08 kind:function(arm,size=0xdc) addr:0x02087e08
func_02087ee4 kind:function(arm,size=0x30) addr:0x02087ee4
func_02087f14 kind:function(arm,size=0xa8) addr:0x02087f14
func_02087fbc kind:function(arm,size=0xbc) addr:0x02087fbc
func_02088078 kind:function(arm,size=0x4c) addr:0x02088078
func_020880c4 kind:function(arm,size=0x28) addr:0x020880c4
func_020880ec kind:function(arm,size=0x24) addr:0x020880ec
func_02088110 kind:function(arm,size=0x80) addr:0x02088110
func_02088190 kind:function(arm,size=0x2c) addr:0x02088190
func_020881bc kind:function(arm,size=0x1c) addr:0x020881bc
func_020881d8 kind:function(arm,size=0x60) addr:0x020881d8
func_02088238 kind:function(arm,size=0x20) addr:0x02088238
func_02088258 kind:function(arm,size=0x28) addr:0x02088258
func_02088280 kind:function(arm,size=0xc) addr:0x02088280
func_0208828c kind:function(arm,size=0xc) addr:0x0208828c
func_02088298 kind:function(arm,size=0xc) addr:0x02088298
func_020882a4 kind:function(arm,size=0xc) addr:0x020882a4
func_020882b0 kind:function(arm,size=0xc) addr:0x020882b0
func_020882bc kind:function(arm,size=0xc) addr:0x020882bc
func_020882c8 kind:function(arm,size=0xc) addr:0x020882c8
func_020882d4 kind:function(arm,size=0x18) addr:0x020882d4
func_020882ec kind:function(arm,size=0x1c) addr:0x020882ec
func_02088308 kind:function(arm,size=0x58) addr:0x02088308
_ZN3dss8DssUtils8strcpy_sEPciS1_ kind:function(arm,size=0x78) addr:0x02088360
func_020883d8 kind:function(arm,size=0xac) addr:0x020883d8
func_02088484 kind:function(arm,size=0xc0) addr:0x02088484
func_02088544 kind:function(arm,size=0x10) addr:0x02088544
func_02088554 kind:function(arm,size=0x38) addr:0x02088554
func_0208858c kind:function(arm,size=0x6c) addr:0x0208858c
func_020885f8 kind:function(arm,size=0x14) addr:0x020885f8
func_0208860c kind:function(arm,size=0xc) addr:0x0208860c
func_02088618 kind:function(arm,size=0x30) addr:0x02088618
func_02088648 kind:function(arm,size=0x28) addr:0x02088648
func_02088670 kind:function(arm,size=0x28) addr:0x02088670
func_02088698 kind:function(arm,size=0x38) addr:0x02088698
func_020886d0 kind:function(arm,size=0x38) addr:0x020886d0
func_02088708 kind:function(arm,size=0x38) addr:0x02088708
func_02088740 kind:function(arm,size=0x3c) addr:0x02088740
func_0208877c kind:function(arm,size=0x54) addr:0x0208877c
func_020887d0 kind:function(arm,size=0x54) addr:0x020887d0
func_02088824 kind:function(arm,size=0x30) addr:0x02088824
func_02088854 kind:function(arm,size=0x8) addr:0x02088854
func_0208885c kind:function(arm,size=0x30) addr:0x0208885c
func_0208888c kind:function(arm,size=0x30) addr:0x0208888c
func_020888bc kind:function(arm,size=0x2c) addr:0x020888bc
func_020888e8 kind:function(arm,size=0x74) addr:0x020888e8
func_0208895c kind:function(arm,size=0x2c) addr:0x0208895c
func_02088988 kind:function(arm,size=0x74) addr:0x02088988
func_020889fc kind:function(arm,size=0x2c) addr:0x020889fc
func_02088a28 kind:function(arm,size=0x74) addr:0x02088a28
func_02088a9c kind:function(arm,size=0x74) addr:0x02088a9c
func_02088b10 kind:function(arm,size=0x2c) addr:0x02088b10
func_02088b3c kind:function(arm,size=0x2c) addr:0x02088b3c
func_02088b68 kind:function(arm,size=0x74) addr:0x02088b68
func_02088bdc kind:function(arm,size=0x74) addr:0x02088bdc
func_02088c50 kind:function(arm,size=0x2c) addr:0x02088c50
func_02088c7c kind:function(arm,size=0x2c) addr:0x02088c7c
func_02088ca8 kind:function(arm,size=0x4c) addr:0x02088ca8
func_02088cf4 kind:function(arm,size=0x4c) addr:0x02088cf4
func_02088d40 kind:function(arm,size=0x7c) addr:0x02088d40
func_02088dbc kind:function(arm,size=0xd4) addr:0x02088dbc
func_02088e90 kind:function(arm,size=0x90) addr:0x02088e90
func_02088f20 kind:function(arm,size=0x78) addr:0x02088f20
func_02088f98 kind:function(arm,size=0xf4) addr:0x02088f98
func_0208908c kind:function(arm,size=0xdc) addr:0x0208908c
func_02089168 kind:function(arm,size=0xac) addr:0x02089168
func_02089214 kind:function(arm,size=0x3c) addr:0x02089214
func_02089250 kind:function(arm,size=0x7c) addr:0x02089250
func_020892cc kind:function(arm,size=0x80) addr:0x020892cc
func_0208934c kind:function(arm,size=0x94) addr:0x0208934c
func_020893e0 kind:function(arm,size=0x34) addr:0x020893e0
func_02089414 kind:function(arm,size=0x5c) addr:0x02089414
func_02089470 kind:function(arm,size=0xe8) addr:0x02089470
func_02089558 kind:function(arm,size=0x10) addr:0x02089558
func_02089568 kind:function(arm,size=0x10) addr:0x02089568
func_02089578 kind:function(arm,size=0x4) addr:0x02089578
func_0208957c kind:function(arm,size=0x4) addr:0x0208957c
func_02089580 kind:function(arm,size=0x10) addr:0x02089580
func_02089590 kind:function(arm,size=0x58) addr:0x02089590
func_020895e8 kind:function(arm,size=0x14) addr:0x020895e8
func_020895fc kind:function(arm,size=0x10) addr:0x020895fc
func_0208960c kind:function(arm,size=0x6c) addr:0x0208960c
func_02089678 kind:function(thumb,size=0xc) addr:0x02089678
func_02089684 kind:function(thumb,size=0x6c) addr:0x02089684
func_020896f0 kind:function(thumb,size=0x1c) addr:0x020896f0
func_0208970c kind:function(thumb,size=0x12) addr:0x0208970c
func_02089720 kind:function(thumb,size=0x18) addr:0x02089720
func_02089738 kind:function(thumb,size=0x54) addr:0x02089738
func_0208978c kind:function(thumb,size=0x14) addr:0x0208978c
func_020897a0 kind:function(thumb,size=0x6c) addr:0x020897a0
func_0208980c kind:function(thumb,size=0x14) addr:0x0208980c
func_02089820 kind:function(thumb,size=0x6c) addr:0x02089820
func_0208988c kind:function(thumb,size=0x14) addr:0x0208988c
func_020898a0 kind:function(thumb,size=0x6c) addr:0x020898a0
func_0208990c kind:function(thumb,size=0x50) addr:0x0208990c
func_0208995c kind:function(thumb,size=0x48) addr:0x0208995c
func_020899a4 kind:function(thumb,size=0x28) addr:0x020899a4
func_020899cc kind:function(thumb,size=0x38) addr:0x020899cc
func_02089a04 kind:function(thumb,size=0xc) addr:0x02089a04
func_02089a10 kind:function(thumb,size=0x1e) addr:0x02089a10
func_02089a30 kind:function(thumb,size=0x12) addr:0x02089a30
func_02089a44 kind:function(thumb,size=0x26) addr:0x02089a44
func_02089a6c kind:function(thumb,size=0x26) addr:0x02089a6c
func_02089a94 kind:function(thumb,size=0x24) addr:0x02089a94
func_02089ab8 kind:function(thumb,size=0x2) addr:0x02089ab8
func_02089abc kind:function(thumb,size=0x10) addr:0x02089abc
func_02089acc kind:function(thumb,size=0x16) addr:0x02089acc
func_02089ae4 kind:function(arm,size=0x50) addr:0x02089ae4
func_02089b34 kind:function(arm,size=0x4c0) addr:0x02089b34
func_02089ff4 kind:function(arm,size=0x20) addr:0x02089ff4
func_0208a014 kind:function(arm,size=0x14) addr:0x0208a014
func_0208a028 kind:function(arm,size=0x60) addr:0x0208a028
func_0208a088 kind:function(arm,size=0x60) addr:0x0208a088
func_0208a0e8 kind:function(arm,size=0x14) addr:0x0208a0e8
func_0208a0fc kind:function(arm,size=0x8) addr:0x0208a0fc
func_0208a104 kind:function(arm,size=0x10) addr:0x0208a104
func_0208a114 kind:function(arm,size=0x94) addr:0x0208a114
__sinit_0208a1a8 kind:function(arm,size=0xf8) addr:0x0208a1a8
__sinit_0208a2a0 kind:function(arm,size=0x18) addr:0x0208a2a0
__sinit_0208a2b8 kind:function(arm,size=0x14) addr:0x0208a2b8
__sinit_0208a2cc kind:function(arm,size=0x18) addr:0x0208a2cc
__sinit_0208a2e4 kind:function(arm,size=0x28) addr:0x0208a2e4
__sinit_0208a30c kind:function(arm,size=0x18) addr:0x0208a30c
__sinit_0208a324 kind:function(arm,size=0x1b4) addr:0x0208a324
__sinit_0208a4d8 kind:function(arm,size=0x68) addr:0x0208a4d8
__sinit_0208a540 kind:function(thumb,size=0x34) addr:0x0208a540
__sinit_0208a574 kind:function(thumb,size=0x44) addr:0x0208a574
__sinit_0208a5b8 kind:function(thumb,size=0x20) addr:0x0208a5b8
__sinit_0208a5d8 kind:function(thumb,size=0x20) addr:0x0208a5d8
__sinit_0208a5f8 kind:function(thumb,size=0x20) addr:0x0208a5f8
__sinit_0208a618 kind:function(thumb,size=0x20) addr:0x0208a618
__sinit_0208a638 kind:function(thumb,size=0x20) addr:0x0208a638
__sinit_0208a658 kind:function(thumb,size=0x20) addr:0x0208a658
__sinit_0208a678 kind:function(thumb,size=0x20) addr:0x0208a678
__sinit_0208a698 kind:function(thumb,size=0x20) addr:0x0208a698
__sinit_0208a6b8 kind:function(thumb,size=0x20) addr:0x0208a6b8
__sinit_0208a6d8 kind:function(thumb,size=0x20) addr:0x0208a6d8
__sinit_0208a6f8 kind:function(thumb,size=0x20) addr:0x0208a6f8
__sinit_0208a718 kind:function(thumb,size=0x20) addr:0x0208a718
__sinit_0208a738 kind:function(thumb,size=0x20) addr:0x0208a738
__sinit_0208a758 kind:function(thumb,size=0x20) addr:0x0208a758
__sinit_0208a778 kind:function(thumb,size=0x20) addr:0x0208a778
__sinit_0208a798 kind:function(thumb,size=0x20) addr:0x0208a798
__sinit_0208a7b8 kind:function(thumb,size=0x20) addr:0x0208a7b8
__sinit_0208a7d8 kind:function(thumb,size=0x20) addr:0x0208a7d8
__sinit_0208a7f8 kind:function(thumb,size=0x20) addr:0x0208a7f8
__sinit_0208a818 kind:function(thumb,size=0x20) addr:0x0208a818
__sinit_0208a838 kind:function(thumb,size=0x20) addr:0x0208a838
__sinit_0208a858 kind:function(arm,size=0x18) addr:0x0208a858
__sinit_0208a870 kind:function(thumb,size=0x84) addr:0x0208a870
__sinit_0208a8f4 kind:function(thumb,size=0x20) addr:0x0208a8f4
__sinit_0208a914 kind:function(thumb,size=0xc) addr:0x0208a914
__sinit_OptionStatus.cpp kind:function(thumb,size=0x20) addr:0x0208a920 local
__sinit_0208a940 kind:function(thumb,size=0x30) addr:0x0208a940
__sinit_0208a970 kind:function(thumb,size=0x1c) addr:0x0208a970
__sinit_0208a98c kind:function(thumb,size=0x20) addr:0x0208a98c
__sinit_0208a9ac kind:function(thumb,size=0x20) addr:0x0208a9ac
__sinit_0208a9cc kind:function(thumb,size=0x20) addr:0x0208a9cc
__sinit_0208a9ec kind:function(thumb,size=0x50) addr:0x0208a9ec
__sinit_0208aa3c kind:function(arm,size=0x14c) addr:0x0208aa3c
__sinit_0208ab88 kind:function(thumb,size=0x20) addr:0x0208ab88
__sinit_0208aba8 kind:function(arm,size=0x140) addr:0x0208aba8
__sinit_0208ace8 kind:function(thumb,size=0x20) addr:0x0208ace8
__sinit_0208ad08 kind:function(thumb,size=0x20) addr:0x0208ad08
__sinit_0208ad28 kind:function(thumb,size=0x1bc) addr:0x0208ad28
__sinit_0208aee4 kind:function(thumb,size=0x60) addr:0x0208aee4
__sinit_0208af44 kind:function(arm,size=0x14) addr:0x0208af44
__sinit_0208af58 kind:function(arm,size=0x88) addr:0x0208af58
__sinit_0208afe0 kind:function(arm,size=0x18) addr:0x0208afe0
__sinit_0208aff8 kind:function(thumb,size=0x20) addr:0x0208aff8
__sinit_0208b018 kind:function(thumb,size=0x54) addr:0x0208b018
__sinit_0208b06c kind:function(thumb,size=0x1d4) addr:0x0208b06c
__sinit_0208b240 kind:function(thumb,size=0x20) addr:0x0208b240
__sinit_0208b260 kind:function(thumb,size=0x20) addr:0x0208b260
__sinit_0208b280 kind:function(thumb,size=0x20) addr:0x0208b280
__sinit_0208b2a0 kind:function(thumb,size=0xc) addr:0x0208b2a0
__sinit_0208b2ac kind:function(arm,size=0x18) addr:0x0208b2ac
__sinit_0208b2c4 kind:function(arm,size=0x64) addr:0x0208b2c4
__sinit_CommonPartyInfo.cpp kind:function(arm,size=0x14) addr:0x0208b328
__sinit_0208b33c kind:function(thumb,size=0x20) addr:0x0208b33c
__sinit_0208b35c kind:function(thumb,size=0x40) addr:0x0208b35c
__sinit_0208b39c kind:function(thumb,size=0x10) addr:0x0208b39c
__sinit_0208b3ac kind:function(thumb,size=0xb4) addr:0x0208b3ac
__sinit_0208b460 kind:function(arm,size=0x2c) addr:0x0208b460
__sinit_0208b48c kind:function(thumb,size=0x20) addr:0x0208b48c
__sinit_0208b4ac kind:function(thumb,size=0x20) addr:0x0208b4ac
__sinit_0208b4cc kind:function(thumb,size=0x20) addr:0x0208b4cc
__sinit_0208b4ec kind:function(thumb,size=0x20) addr:0x0208b4ec
__sinit_0208b50c kind:function(arm,size=0x14) addr:0x0208b50c
__sinit_0208b520 kind:function(thumb,size=0x20) addr:0x0208b520
__sinit_0208b540 kind:function(thumb,size=0x48) addr:0x0208b540
__sinit_0208b588 kind:function(thumb,size=0x10) addr:0x0208b588
__sinit_0208b598 kind:function(arm,size=0x13c) addr:0x0208b598
__sinit_0208b6d4 kind:function(arm,size=0x854) addr:0x0208b6d4
__sinit_0208bf28 kind:function(arm,size=0x118) addr:0x0208bf28
__sinit_0208c040 kind:function(arm,size=0x40) addr:0x0208c040
__sinit_0208c080 kind:function(arm,size=0x2c) addr:0x0208c080
__sinit_0208c0ac kind:function(thumb,size=0x8c) addr:0x0208c0ac
__sinit_0208c138 kind:function(thumb,size=0x10) addr:0x0208c138
__sinit_0208c148 kind:function(thumb,size=0xb0) addr:0x0208c148
__sinit_0208c1f8 kind:function(thumb,size=0x58) addr:0x0208c1f8
__sinit_0208c250 kind:function(arm,size=0x50) addr:0x0208c250
__sinit_0208c2a0 kind:function(arm,size=0x6c) addr:0x0208c2a0
__sinit_0208c30c kind:function(arm,size=0x78) addr:0x0208c30c
__sinit_0208c384 kind:function(arm,size=0x18) addr:0x0208c384
__sinit_0208c39c kind:function(arm,size=0x40) addr:0x0208c39c
__sinit_0208c3dc kind:function(arm,size=0x2c) addr:0x0208c3dc
__sinit_0208c408 kind:function(arm,size=0x1c) addr:0x0208c408
__sinit_0208c424 kind:function(arm,size=0x18) addr:0x0208c424
__sinit_0208c43c kind:function(arm,size=0x34) addr:0x0208c43c
__sinit_0208c470 kind:function(arm,size=0x30) addr:0x0208c470
__sinit_0208c4a0 kind:function(arm,size=0x2c) addr:0x0208c4a0
__sinit_0208c4cc kind:function(arm,size=0x30) addr:0x0208c4cc
__sinit_0208c4fc kind:function(arm,size=0x14) addr:0x0208c4fc
__sinit_0208c510 kind:function(arm,size=0x18) addr:0x0208c510
__sinit_0208c528 kind:function(arm,size=0x14) addr:0x0208c528
__sinit_0208c53c kind:function(arm,size=0x14) addr:0x0208c53c
__sinit_0208c550 kind:function(arm,size=0x14) addr:0x0208c550
__sinit_0208c564 kind:function(arm,size=0x38) addr:0x0208c564
__sinit_0208c59c kind:function(arm,size=0x80) addr:0x0208c59c
__sinit_0208c61c kind:function(arm,size=0x14) addr:0x0208c61c
__sinit_0208c630 kind:function(arm,size=0x48) addr:0x0208c630
__sinit_0208c678 kind:function(arm,size=0x14) addr:0x0208c678
__sinit_0208c68c kind:function(arm,size=0x2c) addr:0x0208c68c
__sinit_0208c6b8 kind:function(arm,size=0xec) addr:0x0208c6b8
__sinit_0208c7a4 kind:function(arm,size=0x20) addr:0x0208c7a4
__sinit_0208c7c4 kind:function(arm,size=0x2c) addr:0x0208c7c4
__sinit_0208c7f0 kind:function(arm,size=0x2c) addr:0x0208c7f0
__sinit_0208c81c kind:function(arm,size=0x14) addr:0x0208c81c
data_0208c830 kind:data(any) addr:0x0208c830
data_0208c930 kind:data(any) addr:0x0208c930
data_0208c960 kind:data(any) addr:0x0208c960
data_0208c97c kind:data(any) addr:0x0208c97c
data_0208c990 kind:data(any) addr:0x0208c990
data_0208c9a0 kind:data(any) addr:0x0208c9a0
data_0208c9b4 kind:data(any) addr:0x0208c9b4
data_0208c9cc kind:data(any) addr:0x0208c9cc
data_0208c9ec kind:data(any) addr:0x0208c9ec
data_0208c9f4 kind:data(any) addr:0x0208c9f4
data_0208c9fc kind:data(any) addr:0x0208c9fc
data_0208ca04 kind:data(any) addr:0x0208ca04
data_0208ca10 kind:data(any) addr:0x0208ca10
data_0208ca1c kind:data(any) addr:0x0208ca1c
data_0208ca28 kind:data(any) addr:0x0208ca28
data_0208ca34 kind:data(any) addr:0x0208ca34
data_0208ca40 kind:data(any) addr:0x0208ca40
data_0208ca4c kind:data(any) addr:0x0208ca4c
data_0208ca54 kind:data(any) addr:0x0208ca54
data_0208ca60 kind:data(any) addr:0x0208ca60
data_0208ca68 kind:data(any) addr:0x0208ca68
data_0208ca78 kind:data(any) addr:0x0208ca78
data_0208ca8c kind:data(any) addr:0x0208ca8c
data_0208cab8 kind:data(any) addr:0x0208cab8
data_0208cb4c kind:data(any) addr:0x0208cb4c
data_0208cc08 kind:data(any) addr:0x0208cc08
data_0208ccd4 kind:data(any) addr:0x0208ccd4
data_0208cdc8 kind:data(any) addr:0x0208cdc8
data_0208cec8 kind:data(any) addr:0x0208cec8
data_0208cfcc kind:data(any) addr:0x0208cfcc
data_0208d0d0 kind:data(any) addr:0x0208d0d0
data_0208d1d4 kind:data(any) addr:0x0208d1d4
data_0208d2d8 kind:data(any) addr:0x0208d2d8
data_0208d480 kind:data(any) addr:0x0208d480
data_0208d6f4 kind:data(any) addr:0x0208d6f4
data_0208d9b0 kind:data(any) addr:0x0208d9b0
data_0208dd18 kind:data(any) addr:0x0208dd18
data_0208e3ac kind:data(any) addr:0x0208e3ac
charInitDataTable kind:data(any) addr:0x0208eb00
charInitDataTable2 kind:data(any) addr:0x0208f021
heroDataTable kind:data(any) addr:0x0208f44c
warriorDataTable kind:data(any) addr:0x0208fdb0
unk_data_02090000 kind:data(any) addr:0x02090000
unk_data_0209000f kind:data(any) addr:0x0209000f
unk_data_02090195 kind:data(any) addr:0x02090195
princessDataTable kind:data(any) addr:0x02090714
priestDataTable kind:data(any) addr:0x02091078
data_020919dc kind:data(any) addr:0x020919dc
data_02092340 kind:data(any) addr:0x02092340
data_02092ca4 kind:data(any) addr:0x02092ca4
data_02093608 kind:data(any) addr:0x02093608
data_02093f6c kind:data(any) addr:0x02093f6c
data_020948d0 kind:data(any) addr:0x020948d0
data_02095240 kind:data(any) addr:0x02095240
data_02095c64 kind:data(any) addr:0x02095c64
data_02096968 kind:data(any) addr:0x02096968
data_020978dc kind:data(any) addr:0x020978dc
data_02098d20 kind:data(any) addr:0x02098d20
data_0209a44c kind:data(any) addr:0x0209a44c
data_0209bda0 kind:data(any) addr:0x0209bda0
data_0209dae4 kind:data(any) addr:0x0209dae4
data_020a0000 kind:data(any) addr:0x020a0000
data_020a0010 kind:data(any) addr:0x020a0010
data_020a02e8 kind:data(any) addr:0x020a02e8
data_020a0601 kind:data(any) addr:0x020a0601
data_020a0f50 kind:data(any) addr:0x020a0f50
data_020a4cc0 kind:data(any) addr:0x020a4cc0
data_020aa604 kind:data(any) addr:0x020aa604
data_020b0000 kind:data(any) addr:0x020b0000
data_020b000a kind:data(any) addr:0x020b000a
data_020b1001 kind:data(any) addr:0x020b1001
data_020b2a49 kind:data(any) addr:0x020b2a49
data_020b4d5c kind:data(any) addr:0x020b4d5c
data_020b4d68 kind:data(any) addr:0x020b4d68
data_020b4d74 kind:data(any) addr:0x020b4d74
data_020b4d80 kind:data(any) addr:0x020b4d80
data_020b4d8c kind:data(any) addr:0x020b4d8c
data_020b4d9c kind:data(any) addr:0x020b4d9c
data_020b4dac kind:data(any) addr:0x020b4dac
data_020b4dbc kind:data(any) addr:0x020b4dbc
data_020b4dcc kind:data(any) addr:0x020b4dcc
data_020b4ddc kind:data(any) addr:0x020b4ddc
data_020b4dec kind:data(any) addr:0x020b4dec
data_020b4e04 kind:data(any) addr:0x020b4e04
data_020b4e1c kind:data(any) addr:0x020b4e1c
data_020b4e34 kind:data(any) addr:0x020b4e34
data_020b4e4c kind:data(any) addr:0x020b4e4c
data_020b4e6c kind:data(any) addr:0x020b4e6c
data_020b4e8c kind:data(any) addr:0x020b4e8c
data_020b4eac kind:data(any) addr:0x020b4eac
data_020b4ed4 kind:data(any) addr:0x020b4ed4
data_020b4efc kind:data(any) addr:0x020b4efc
data_020b4f30 kind:data(any) addr:0x020b4f30
data_020b4f8c kind:data(any) addr:0x020b4f8c
data_020b4f9c kind:data(any) addr:0x020b4f9c
data_020b4fb8 kind:data(any) addr:0x020b4fb8
data_020b4fd4 kind:data(any) addr:0x020b4fd4
data_020b4fe8 kind:data(any) addr:0x020b4fe8
data_020b5000 kind:data(any) addr:0x020b5000
data_020b500e kind:data(any) addr:0x020b500e
data_020b501c kind:data(any) addr:0x020b501c
data_020b502c kind:data(any) addr:0x020b502c
data_020b5040 kind:data(any) addr:0x020b5040
data_020b505c kind:data(any) addr:0x020b505c
data_020b5078 kind:data(any) addr:0x020b5078
data_020b5094 kind:data(any) addr:0x020b5094
data_020b50b0 kind:data(any) addr:0x020b50b0
data_020b50d8 kind:data(any) addr:0x020b50d8
data_020b5102 kind:data(any) addr:0x020b5102
data_020b513a kind:data(any) addr:0x020b513a
data_020b5180 kind:data(any) addr:0x020b5180
data_020b51c6 kind:data(any) addr:0x020b51c6
data_020b520c kind:data(any) addr:0x020b520c
data_020b5252 kind:data(any) addr:0x020b5252
data_020b52b4 kind:data(any) addr:0x020b52b4
data_020b5332 kind:data(any) addr:0x020b5332
data_020b53b0 kind:data(any) addr:0x020b53b0
data_020b542e kind:data(any) addr:0x020b542e
data_020b54c8 kind:data(any) addr:0x020b54c8
data_020b557e kind:data(any) addr:0x020b557e
data_020b5634 kind:data(any) addr:0x020b5634
data_020b56ea kind:data(any) addr:0x020b56ea
data_020b57a0 kind:data(any) addr:0x020b57a0
data_020b5856 kind:data(any) addr:0x020b5856
data_020b590c kind:data(any) addr:0x020b590c
data_020b59c2 kind:data(any) addr:0x020b59c2
data_020b5a78 kind:data(any) addr:0x020b5a78
data_020b5b4a kind:data(any) addr:0x020b5b4a
data_020b5d64 kind:data(any) addr:0x020b5d64
data_020b5d68 kind:data(any) addr:0x020b5d68
_ZN6status13splitMsgInfo_E kind:data(any) addr:0x020b5d6c
data_020b5d74 kind:data(any) addr:0x020b5d74
data_020b5d80 kind:data(any) addr:0x020b5d80
data_020b5d8c kind:data(any) addr:0x020b5d8c
data_020b5d98 kind:data(any) addr:0x020b5d98
data_020b5da0 kind:data(any) addr:0x020b5da0
data_020b5db0 kind:data(any) addr:0x020b5db0
data_020b5dbc kind:data(any) addr:0x020b5dbc
data_020b5dc8 kind:data(any) addr:0x020b5dc8
data_020b5ddc kind:data(any) addr:0x020b5ddc
data_020b5df0 kind:data(any) addr:0x020b5df0
data_020b5e04 kind:data(any) addr:0x020b5e04
data_020b5e1c kind:data(any) addr:0x020b5e1c
data_020b5e34 kind:data(any) addr:0x020b5e34
data_020b5e4c kind:data(any) addr:0x020b5e4c
data_020b5e70 kind:data(any) addr:0x020b5e70
data_020b5ed0 kind:data(any) addr:0x020b5ed0
data_020b5f78 kind:data(any) addr:0x020b5f78
data_020b5f90 kind:data(any) addr:0x020b5f90
data_020b5faa kind:data(any) addr:0x020b5faa
data_020b5fbc kind:data(any) addr:0x020b5fbc
data_020b610c kind:data(any) addr:0x020b610c
data_020b6114 kind:data(any) addr:0x020b6114
data_020b6144 kind:data(any) addr:0x020b6144
data_020b614c kind:data(any) addr:0x020b614c
data_020b6154 kind:data(any) addr:0x020b6154
data_020b615c kind:data(any) addr:0x020b615c
data_020b6164 kind:data(any) addr:0x020b6164
data_020b618e kind:data(any) addr:0x020b618e
data_020b61b8 kind:data(any) addr:0x020b61b8
data_020b61bc kind:data(any) addr:0x020b61bc
data_020b61c0 kind:data(any) addr:0x020b61c0
data_020b61c4 kind:data(any) addr:0x020b61c4
data_020b61dc kind:data(any) addr:0x020b61dc
data_020b61e8 kind:data(any) addr:0x020b61e8
data_020b61f4 kind:data(any) addr:0x020b61f4
data_020b6290 kind:data(any) addr:0x020b6290
data_020b62c8 kind:data(any) addr:0x020b62c8
data_020b62d4 kind:data(any) addr:0x020b62d4
data_020b6328 kind:data(any) addr:0x020b6328
data_020b634c kind:data(any) addr:0x020b634c
data_020b638c kind:data(any) addr:0x020b638c
data_020ba38c kind:data(any) addr:0x020ba38c
data_020ba490 kind:data(any) addr:0x020ba490
data_020ba4a0 kind:data(any) addr:0x020ba4a0
data_020ba4a2 kind:data(any) addr:0x020ba4a2
data_020ba4a4 kind:data(any) addr:0x020ba4a4
data_020ba510 kind:data(any) addr:0x020ba510
data_020ba520 kind:data(any) addr:0x020ba520
data_020ba548 kind:data(any) addr:0x020ba548
data_020ba560 kind:data(any) addr:0x020ba560
data_020ba5c0 kind:data(any) addr:0x020ba5c0
data_020ba5e0 kind:data(any) addr:0x020ba5e0
data_020ba5e1 kind:data(any) addr:0x020ba5e1
data_020ba5e2 kind:data(any) addr:0x020ba5e2
data_020ba5e3 kind:data(any) addr:0x020ba5e3
data_020ba604 kind:data(any) addr:0x020ba604
data_020ba605 kind:data(any) addr:0x020ba605
data_020ba606 kind:data(any) addr:0x020ba606
data_020ba607 kind:data(any) addr:0x020ba607
data_020ba628 kind:data(any) addr:0x020ba628
data_020ba6b8 kind:data(any) addr:0x020ba6b8
data_020ba6e8 kind:data(any) addr:0x020ba6e8
data_020ba6f8 kind:data(any) addr:0x020ba6f8
data_020ba8ac kind:data(any) addr:0x020ba8ac
data_020bafac kind:data(any) addr:0x020bafac
data_020bb298 kind:data(any) addr:0x020bb298
data_020bb2a4 kind:data(any) addr:0x020bb2a4
data_020bb2b0 kind:data(any) addr:0x020bb2b0
data_020bb2bc kind:data(any) addr:0x020bb2bc
data_020bb2c8 kind:data(any) addr:0x020bb2c8
data_020bb2d4 kind:data(any) addr:0x020bb2d4
data_020bb2e0 kind:data(any) addr:0x020bb2e0
data_020bb2ec kind:data(any) addr:0x020bb2ec
.p__sinit_0208a1a8 kind:data(word) addr:0x020bb30c
.p__sinit_0208a2a0 kind:data(word) addr:0x020bb310
.p__sinit_0208a2b8 kind:data(word) addr:0x020bb314
.p__sinit_0208a2cc kind:data(word) addr:0x020bb318
.p__sinit_0208a2e4 kind:data(word) addr:0x020bb31c
.p__sinit_0208a30c kind:data(word) addr:0x020bb320
.p__sinit_0208a324 kind:data(word) addr:0x020bb324
.p__sinit_0208a4d8 kind:data(word) addr:0x020bb328
.p__sinit_0208a540 kind:data(word) addr:0x020bb32c
.p__sinit_0208a574 kind:data(word) addr:0x020bb330
.p__sinit_0208a5b8 kind:data(word) addr:0x020bb334
.p__sinit_0208a5d8 kind:data(word) addr:0x020bb338
.p__sinit_0208a5f8 kind:data(word) addr:0x020bb33c
.p__sinit_0208a618 kind:data(word) addr:0x020bb340
.p__sinit_0208a638 kind:data(word) addr:0x020bb344
.p__sinit_0208a658 kind:data(word) addr:0x020bb348
.p__sinit_0208a678 kind:data(word) addr:0x020bb34c
.p__sinit_0208a698 kind:data(word) addr:0x020bb350
.p__sinit_0208a6b8 kind:data(word) addr:0x020bb354
.p__sinit_0208a6d8 kind:data(word) addr:0x020bb358
.p__sinit_0208a6f8 kind:data(word) addr:0x020bb35c
.p__sinit_0208a718 kind:data(word) addr:0x020bb360
.p__sinit_0208a738 kind:data(word) addr:0x020bb364
.p__sinit_0208a758 kind:data(word) addr:0x020bb368
.p__sinit_0208a778 kind:data(word) addr:0x020bb36c
.p__sinit_0208a798 kind:data(word) addr:0x020bb370
.p__sinit_0208a7b8 kind:data(word) addr:0x020bb374
.p__sinit_0208a7d8 kind:data(word) addr:0x020bb378
.p__sinit_0208a7f8 kind:data(word) addr:0x020bb37c
.p__sinit_0208a818 kind:data(word) addr:0x020bb380
.p__sinit_0208a838 kind:data(word) addr:0x020bb384
.p__sinit_0208a858 kind:data(word) addr:0x020bb388
.p__sinit_0208a870 kind:data(word) addr:0x020bb38c
.p__sinit_0208a8f4 kind:data(word) addr:0x020bb390
.p__sinit_0208a914 kind:data(word) addr:0x020bb394
.p__sinit_OptionStatus.cpp kind:data(word) addr:0x020bb398 local
.p__sinit_0208a940 kind:data(word) addr:0x020bb39c
.p__sinit_0208a970 kind:data(word) addr:0x020bb3a0
.p__sinit_0208a98c kind:data(word) addr:0x020bb3a4
.p__sinit_0208a9ac kind:data(word) addr:0x020bb3a8
.p__sinit_0208a9cc kind:data(word) addr:0x020bb3ac
.p__sinit_0208a9ec kind:data(word) addr:0x020bb3b0
.p__sinit_0208aa3c kind:data(word) addr:0x020bb3b4
.p__sinit_0208ab88 kind:data(word) addr:0x020bb3b8
.p__sinit_0208aba8 kind:data(word) addr:0x020bb3bc
.p__sinit_0208ace8 kind:data(word) addr:0x020bb3c0
.p__sinit_0208ad08 kind:data(word) addr:0x020bb3c4
.p__sinit_0208ad28 kind:data(word) addr:0x020bb3c8
.p__sinit_0208aee4 kind:data(word) addr:0x020bb3cc
.p__sinit_0208af44 kind:data(word) addr:0x020bb3d0
.p__sinit_0208af58 kind:data(word) addr:0x020bb3d4
.p__sinit_0208afe0 kind:data(word) addr:0x020bb3d8
.p__sinit_0208aff8 kind:data(word) addr:0x020bb3dc
.p__sinit_0208b018 kind:data(word) addr:0x020bb3e0
.p__sinit_0208b06c kind:data(word) addr:0x020bb3e4
.p__sinit_0208b240 kind:data(word) addr:0x020bb3e8
.p__sinit_0208b260 kind:data(word) addr:0x020bb3ec
.p__sinit_0208b280 kind:data(word) addr:0x020bb3f0
.p__sinit_0208b2a0 kind:data(word) addr:0x020bb3f4
.p__sinit_0208b2ac kind:data(word) addr:0x020bb3f8
.p__sinit_0208b2c4 kind:data(word) addr:0x020bb3fc
.p__sinit_CommonPartyInfo.cpp kind:data(word) addr:0x020bb400
.p__sinit_0208b33c kind:data(word) addr:0x020bb404
.p__sinit_0208b35c kind:data(word) addr:0x020bb408
.p__sinit_0208b39c kind:data(word) addr:0x020bb40c
.p__sinit_0208b3ac kind:data(word) addr:0x020bb410
.p__sinit_0208b460 kind:data(word) addr:0x020bb414
.p__sinit_0208b48c kind:data(word) addr:0x020bb418
.p__sinit_0208b4ac kind:data(word) addr:0x020bb41c
.p__sinit_0208b4cc kind:data(word) addr:0x020bb420
.p__sinit_0208b4ec kind:data(word) addr:0x020bb424
.p__sinit_0208b50c kind:data(word) addr:0x020bb428
.p__sinit_0208b520 kind:data(word) addr:0x020bb42c
.p__sinit_0208b540 kind:data(word) addr:0x020bb430
.p__sinit_0208b588 kind:data(word) addr:0x020bb434
.p__sinit_0208b598 kind:data(word) addr:0x020bb438
.p__sinit_0208b6d4 kind:data(word) addr:0x020bb43c
.p__sinit_0208bf28 kind:data(word) addr:0x020bb440
.p__sinit_0208c040 kind:data(word) addr:0x020bb444
.p__sinit_0208c080 kind:data(word) addr:0x020bb448
.p__sinit_0208c0ac kind:data(word) addr:0x020bb44c
.p__sinit_0208c138 kind:data(word) addr:0x020bb450
.p__sinit_0208c148 kind:data(word) addr:0x020bb454
.p__sinit_0208c1f8 kind:data(word) addr:0x020bb458
.p__sinit_0208c250 kind:data(word) addr:0x020bb45c
.p__sinit_0208c2a0 kind:data(word) addr:0x020bb460
.p__sinit_0208c30c kind:data(word) addr:0x020bb464
.p__sinit_0208c384 kind:data(word) addr:0x020bb468
.p__sinit_0208c39c kind:data(word) addr:0x020bb46c
.p__sinit_0208c3dc kind:data(word) addr:0x020bb470
.p__sinit_0208c408 kind:data(word) addr:0x020bb474
.p__sinit_0208c424 kind:data(word) addr:0x020bb478
.p__sinit_0208c43c kind:data(word) addr:0x020bb47c
.p__sinit_0208c470 kind:data(word) addr:0x020bb480
.p__sinit_0208c4a0 kind:data(word) addr:0x020bb484
.p__sinit_0208c4cc kind:data(word) addr:0x020bb488
.p__sinit_0208c4fc kind:data(word) addr:0x020bb48c
.p__sinit_0208c510 kind:data(word) addr:0x020bb490
.p__sinit_0208c528 kind:data(word) addr:0x020bb494
.p__sinit_0208c53c kind:data(word) addr:0x020bb498
.p__sinit_0208c550 kind:data(word) addr:0x020bb49c
.p__sinit_0208c564 kind:data(word) addr:0x020bb4a0
.p__sinit_0208c59c kind:data(word) addr:0x020bb4a4
.p__sinit_0208c61c kind:data(word) addr:0x020bb4a8
.p__sinit_0208c630 kind:data(word) addr:0x020bb4ac
.p__sinit_0208c678 kind:data(word) addr:0x020bb4b0
.p__sinit_0208c68c kind:data(word) addr:0x020bb4b4
.p__sinit_0208c6b8 kind:data(word) addr:0x020bb4b8
.p__sinit_0208c7a4 kind:data(word) addr:0x020bb4bc
.p__sinit_0208c7c4 kind:data(word) addr:0x020bb4c0
.p__sinit_0208c7f0 kind:data(word) addr:0x020bb4c4
.p__sinit_0208c81c kind:data(word) addr:0x020bb4c8
data_020bb4e0 kind:data(any) addr:0x020bb4e0
data_020bb5c4 kind:data(any) addr:0x020bb5c4
data_020bb5c8 kind:data(any) addr:0x020bb5c8
data_020bb5cc kind:data(any) addr:0x020bb5cc
data_020bb5d4 kind:data(any) addr:0x020bb5d4
data_020bb5dc kind:data(any) addr:0x020bb5dc
data_020bb5ec kind:data(any) addr:0x020bb5ec
data_020bb60c kind:data(any) addr:0x020bb60c
data_020bb6cc kind:data(any) addr:0x020bb6cc
data_020bb6d8 kind:data(any) addr:0x020bb6d8
data_020bb6e4 kind:data(any) addr:0x020bb6e4
data_020bb6f0 kind:data(any) addr:0x020bb6f0
data_020bb700 kind:data(any) addr:0x020bb700
data_020bb758 kind:data(any) addr:0x020bb758
data_020bb7e0 kind:data(any) addr:0x020bb7e0
data_020bb7e8 kind:data(any) addr:0x020bb7e8
data_020bb7f0 kind:data(any) addr:0x020bb7f0
data_020bb7f8 kind:data(any) addr:0x020bb7f8
data_020bb7fc kind:data(any) addr:0x020bb7fc
data_020bb800 kind:data(any) addr:0x020bb800
data_020bb808 kind:data(any) addr:0x020bb808
data_020bb810 kind:data(any) addr:0x020bb810
data_020bb814 kind:data(any) addr:0x020bb814
data_020bb818 kind:data(any) addr:0x020bb818
data_020bb81c kind:data(any) addr:0x020bb81c
data_020bb820 kind:data(any) addr:0x020bb820
data_020bb850 kind:data(any) addr:0x020bb850
data_020bb878 kind:data(any) addr:0x020bb878
data_020bb890 kind:data(any) addr:0x020bb890
data_020bb8a0 kind:data(any) addr:0x020bb8a0
data_020bb8a8 kind:data(any) addr:0x020bb8a8
data_020bb8b0 kind:data(any) addr:0x020bb8b0
data_020bb8b8 kind:data(any) addr:0x020bb8b8
data_020bb8c0 kind:data(any) addr:0x020bb8c0
data_020bb8c4 kind:data(any) addr:0x020bb8c4
data_020bb8c8 kind:data(any) addr:0x020bb8c8
data_020bb8cc kind:data(any) addr:0x020bb8cc
data_020bb8d0 kind:data(any) addr:0x020bb8d0
data_020bb8d4 kind:data(any) addr:0x020bb8d4
data_020bb8d8 kind:data(any) addr:0x020bb8d8
data_020bb8dc kind:data(any) addr:0x020bb8dc
data_020bb8e0 kind:data(any) addr:0x020bb8e0
data_020bb8e4 kind:data(any) addr:0x020bb8e4
data_020bb8e8 kind:data(any) addr:0x020bb8e8
data_020bb8ec kind:data(any) addr:0x020bb8ec
data_020bb8f0 kind:data(any) addr:0x020bb8f0
data_020bb8f4 kind:data(any) addr:0x020bb8f4
data_020bb8fc kind:data(any) addr:0x020bb8fc
data_020bb900 kind:data(any) addr:0x020bb900
data_020bb904 kind:data(any) addr:0x020bb904
data_020bb908 kind:data(any) addr:0x020bb908
data_020bb90c kind:data(any) addr:0x020bb90c
data_020bb910 kind:data(any) addr:0x020bb910
data_020bb914 kind:data(any) addr:0x020bb914
data_020bb918 kind:data(any) addr:0x020bb918
data_020bb91c kind:data(any) addr:0x020bb91c
data_020bb920 kind:data(any) addr:0x020bb920
data_020bb924 kind:data(any) addr:0x020bb924
data_020bb928 kind:data(any) addr:0x020bb928
data_020bb92c kind:data(any) addr:0x020bb92c
data_020bb938 kind:data(any) addr:0x020bb938
data_020bb944 kind:data(any) addr:0x020bb944
data_020bb958 kind:data(any) addr:0x020bb958
data_020bb978 kind:data(any) addr:0x020bb978
data_020bb990 kind:data(any) addr:0x020bb990
data_020bb9a8 kind:data(any) addr:0x020bb9a8
data_020bb9c0 kind:data(any) addr:0x020bb9c0
data_020bb9d8 kind:data(any) addr:0x020bb9d8
data_020bb9f0 kind:data(any) addr:0x020bb9f0
data_020bba0c kind:data(any) addr:0x020bba0c
data_020bba28 kind:data(any) addr:0x020bba28
data_020bba44 kind:data(any) addr:0x020bba44
data_020bba60 kind:data(any) addr:0x020bba60
data_020bba78 kind:data(any) addr:0x020bba78
data_020bba90 kind:data(any) addr:0x020bba90
data_020bbaac kind:data(any) addr:0x020bbaac
data_020bbab4 kind:data(any) addr:0x020bbab4
data_020bbad4 kind:data(any) addr:0x020bbad4
data_020bbb0c kind:data(any) addr:0x020bbb0c
data_020bbb3c kind:data(any) addr:0x020bbb3c
data_020bbb54 kind:data(any) addr:0x020bbb54
data_020bbb68 kind:data(any) addr:0x020bbb68
data_020bbb6c kind:data(any) addr:0x020bbb6c
data_020bbb80 kind:data(any) addr:0x020bbb80
data_020bbb90 kind:data(any) addr:0x020bbb90
data_020bbba4 kind:data(any) addr:0x020bbba4
data_020bbbbc kind:data(any) addr:0x020bbbbc
data_020bbbd0 kind:data(any) addr:0x020bbbd0
data_020bbbe4 kind:data(any) addr:0x020bbbe4
data_020bbbf8 kind:data(any) addr:0x020bbbf8
data_020bbc08 kind:data(any) addr:0x020bbc08
data_020bbc1c kind:data(any) addr:0x020bbc1c
data_020bbc2c kind:data(any) addr:0x020bbc2c
data_020bbc3c kind:data(any) addr:0x020bbc3c
data_020bbc4c kind:data(any) addr:0x020bbc4c
data_020bbc60 kind:data(any) addr:0x020bbc60
data_020bbc98 kind:data(any) addr:0x020bbc98
data_020bbcc8 kind:data(any) addr:0x020bbcc8
data_020bbd58 kind:data(any) addr:0x020bbd58
data_020bbd68 kind:data(any) addr:0x020bbd68
data_020bbd70 kind:data(any) addr:0x020bbd70
data_020bbd78 kind:data(any) addr:0x020bbd78
data_020bbd84 kind:data(any) addr:0x020bbd84
data_020bbd90 kind:data(any) addr:0x020bbd90
data_020bbd9c kind:data(any) addr:0x020bbd9c
data_020bbda8 kind:data(any) addr:0x020bbda8
data_020bbdd8 kind:data(any) addr:0x020bbdd8
data_020bbde0 kind:data(any) addr:0x020bbde0
data_020bbde8 kind:data(any) addr:0x020bbde8
data_020bbdfc kind:data(any) addr:0x020bbdfc
data_020bbe2c kind:data(any) addr:0x020bbe2c
data_020bbe40 kind:data(any) addr:0x020bbe40
data_020bbe48 kind:data(any) addr:0x020bbe48
data_020bbe60 kind:data(any) addr:0x020bbe60
data_020bbe78 kind:data(any) addr:0x020bbe78
data_020bbe90 kind:data(any) addr:0x020bbe90
data_020bbe98 kind:data(any) addr:0x020bbe98
data_020bbeac kind:data(any) addr:0x020bbeac
data_020bbebc kind:data(any) addr:0x020bbebc
data_020bbeec kind:data(any) addr:0x020bbeec
data_020bbf08 kind:data(any) addr:0x020bbf08
data_020bbf24 kind:data(any) addr:0x020bbf24
data_020bbf40 kind:data(any) addr:0x020bbf40
data_020bbf5c kind:data(any) addr:0x020bbf5c
data_020bbf64 kind:data(any) addr:0x020bbf64
data_020bbf6c kind:data(any) addr:0x020bbf6c
data_020bbf74 kind:data(any) addr:0x020bbf74
data_020bbf80 kind:data(any) addr:0x020bbf80
data_020bbf8c kind:data(any) addr:0x020bbf8c
data_020bbf98 kind:data(any) addr:0x020bbf98
data_020bbfa4 kind:data(any) addr:0x020bbfa4
data_020bbfb0 kind:data(any) addr:0x020bbfb0
data_020bbfbc kind:data(any) addr:0x020bbfbc
data_020bbfc8 kind:data(any) addr:0x020bbfc8
data_020bbfd4 kind:data(any) addr:0x020bbfd4
data_020bbfe0 kind:data(any) addr:0x020bbfe0
data_020bbfec kind:data(any) addr:0x020bbfec
data_020bbff8 kind:data(any) addr:0x020bbff8
data_020bc004 kind:data(any) addr:0x020bc004
data_020bc010 kind:data(any) addr:0x020bc010
data_020bc01c kind:data(any) addr:0x020bc01c
data_020bc028 kind:data(any) addr:0x020bc028
data_020bc03c kind:data(any) addr:0x020bc03c
data_020bc06c kind:data(any) addr:0x020bc06c
data_020bc088 kind:data(any) addr:0x020bc088
data_020bc09c kind:data(any) addr:0x020bc09c
data_020bc0b0 kind:data(any) addr:0x020bc0b0
data_020bc0c4 kind:data(any) addr:0x020bc0c4
data_020bc0d0 kind:data(any) addr:0x020bc0d0
data_020bc0ec kind:data(any) addr:0x020bc0ec
data_020bc104 kind:data(any) addr:0x020bc104
data_020bc120 kind:data(any) addr:0x020bc120
data_020bc13c kind:data(any) addr:0x020bc13c
data_020bc158 kind:data(any) addr:0x020bc158
data_020bc174 kind:data(any) addr:0x020bc174
data_020bc194 kind:data(any) addr:0x020bc194
data_020bc19c kind:data(any) addr:0x020bc19c
data_020bc1bc kind:data(any) addr:0x020bc1bc
data_020bc1dc kind:data(any) addr:0x020bc1dc
data_020bc258 kind:data(any) addr:0x020bc258
data_020bc260 kind:data(any) addr:0x020bc260
data_020bc268 kind:data(any) addr:0x020bc268
data_020bc270 kind:data(any) addr:0x020bc270
data_020bc278 kind:data(any) addr:0x020bc278
data_020bc28c kind:data(any) addr:0x020bc28c
data_020bc2a0 kind:data(any) addr:0x020bc2a0
data_020bc2b4 kind:data(any) addr:0x020bc2b4
data_020bc2c0 kind:data(any) addr:0x020bc2c0
data_020bc2c8 kind:data(any) addr:0x020bc2c8
data_020bc2d0 kind:data(any) addr:0x020bc2d0
data_020bc2e8 kind:data(any) addr:0x020bc2e8
data_020bc2f4 kind:data(any) addr:0x020bc2f4
data_020bc560 kind:data(any) addr:0x020bc560
data_020bc584 kind:data(any) addr:0x020bc584
data_020bc5a8 kind:data(any) addr:0x020bc5a8
data_020bc5cc kind:data(any) addr:0x020bc5cc
data_020bc5f0 kind:data(any) addr:0x020bc5f0
data_020bc614 kind:data(any) addr:0x020bc614
data_020bc638 kind:data(any) addr:0x020bc638
data_020bc640 kind:data(any) addr:0x020bc640
data_020bc64c kind:data(any) addr:0x020bc64c
data_020bc654 kind:data(any) addr:0x020bc654
data_020bc664 kind:data(any) addr:0x020bc664
data_020bc674 kind:data(any) addr:0x020bc674
data_020bc684 kind:data(any) addr:0x020bc684
data_020bc698 kind:data(any) addr:0x020bc698
data_020bc6ac kind:data(any) addr:0x020bc6ac
data_020bc6c0 kind:data(any) addr:0x020bc6c0
data_020bc6d4 kind:data(any) addr:0x020bc6d4
data_020bc6f4 kind:data(any) addr:0x020bc6f4
data_020bc71c kind:data(any) addr:0x020bc71c
data_020bc744 kind:data(any) addr:0x020bc744
data_020bc758 kind:data(any) addr:0x020bc758
data_020bc76c kind:data(any) addr:0x020bc76c
data_020bc77c kind:data(any) addr:0x020bc77c
data_020bc790 kind:data(any) addr:0x020bc790
data_020bc7a4 kind:data(any) addr:0x020bc7a4
data_020bc7b4 kind:data(any) addr:0x020bc7b4
data_020bc7c4 kind:data(any) addr:0x020bc7c4
data_020bc7e4 kind:data(any) addr:0x020bc7e4
data_020bc80c kind:data(any) addr:0x020bc80c
data_020bc810 kind:data(any) addr:0x020bc810
data_020bc818 kind:data(any) addr:0x020bc818
data_020bc820 kind:data(any) addr:0x020bc820
data_020bc828 kind:data(any) addr:0x020bc828
data_020bc830 kind:data(any) addr:0x020bc830
data_020bc840 kind:data(any) addr:0x020bc840
_ZTVN6status12PlayerStatusE kind:data(byte[28]) addr:0x020bc870
_ZTVN6status11PartyStatusE kind:data(byte[16]) addr:0x020bc88c
_ZTVN6status15BasePartyStatusE kind:data(byte[16]) addr:0x020bc89c
_ZTVN6status8HaveItemE kind:data(byte[20]) addr:0x020bc8ac
_ZTVN6status13HaveEquipmentE kind:data(byte[12]) addr:0x020bc8c0
_ZTVN6status12BaseHaveItemE kind:data(byte[20]) addr:0x020bc8cc
_ZTVN6status12HaveItemSackE kind:data(byte[20]) addr:0x020bc8e0
data_020bc8fc kind:data(any) addr:0x020bc8fc
data_020bc900 kind:data(any) addr:0x020bc900
data_020bc91c kind:data(any) addr:0x020bc91c
@690 kind:data(any) addr:0x020bc938 local
@696 kind:data(any) addr:0x020bc960 local
@965 kind:data(any) addr:0x020bc980 local
data_020bc9b4 kind:data(any) addr:0x020bc9b4
data_020bc9dc kind:data(any) addr:0x020bc9dc
data_020bca04 kind:data(any) addr:0x020bca04
data_020bca28 kind:data(any) addr:0x020bca28
data_020bca68 kind:data(any) addr:0x020bca68
data_020bcaa4 kind:data(any) addr:0x020bcaa4
data_020bcae8 kind:data(any) addr:0x020bcae8
data_020bcb28 kind:data(any) addr:0x020bcb28
data_020bcb74 kind:data(any) addr:0x020bcb74
data_020bcba4 kind:data(any) addr:0x020bcba4
data_020bcbf4 kind:data(any) addr:0x020bcbf4
data_020bcc20 kind:data(any) addr:0x020bcc20
data_020bcc48 kind:data(any) addr:0x020bcc48
data_020bcc70 kind:data(any) addr:0x020bcc70
data_020bcc98 kind:data(any) addr:0x020bcc98
data_020bccc0 kind:data(any) addr:0x020bccc0
data_020bccec kind:data(any) addr:0x020bccec
data_020bcd30 kind:data(any) addr:0x020bcd30
data_020bcd7c kind:data(any) addr:0x020bcd7c
data_020bcdb0 kind:data(any) addr:0x020bcdb0
data_020bcdd8 kind:data(any) addr:0x020bcdd8
data_020bcdfc kind:data(any) addr:0x020bcdfc
data_020bce24 kind:data(any) addr:0x020bce24
data_020bce50 kind:data(any) addr:0x020bce50
data_020bce90 kind:data(any) addr:0x020bce90
data_020bced4 kind:data(any) addr:0x020bced4
data_020bcf20 kind:data(any) addr:0x020bcf20
data_020bcf6c kind:data(any) addr:0x020bcf6c
data_020bcfb0 kind:data(any) addr:0x020bcfb0
data_020bcff8 kind:data(any) addr:0x020bcff8
data_020bd03c kind:data(any) addr:0x020bd03c
data_020bd080 kind:data(any) addr:0x020bd080
data_020bd0c4 kind:data(any) addr:0x020bd0c4
data_020bd104 kind:data(any) addr:0x020bd104
data_020bd148 kind:data(any) addr:0x020bd148
data_020bd198 kind:data(any) addr:0x020bd198
data_020bd1e8 kind:data(any) addr:0x020bd1e8
data_020bd230 kind:data(any) addr:0x020bd230
data_020bd274 kind:data(any) addr:0x020bd274
data_020bd2b8 kind:data(any) addr:0x020bd2b8
data_020bd2fc kind:data(any) addr:0x020bd2fc
data_020bd340 kind:data(any) addr:0x020bd340
data_020bd380 kind:data(any) addr:0x020bd380
data_020bd3c4 kind:data(any) addr:0x020bd3c4
data_020bd408 kind:data(any) addr:0x020bd408
data_020bd44c kind:data(any) addr:0x020bd44c
data_020bd490 kind:data(any) addr:0x020bd490
data_020bd4d4 kind:data(any) addr:0x020bd4d4
data_020bd51c kind:data(any) addr:0x020bd51c
data_020bd564 kind:data(any) addr:0x020bd564
data_020bd5a8 kind:data(any) addr:0x020bd5a8
data_020bd5e4 kind:data(any) addr:0x020bd5e4
data_020bd604 kind:data(any) addr:0x020bd604
data_020bd644 kind:data(any) addr:0x020bd644
data_020bd674 kind:data(any) addr:0x020bd674
data_020bd6c0 kind:data(any) addr:0x020bd6c0
data_020bd6ec kind:data(any) addr:0x020bd6ec
data_020bd718 kind:data(any) addr:0x020bd718
JP_tbl kind:data(any) addr:0x020bd730
DE_tbl kind:data(any) addr:0x020bd7d4
EN_tbl kind:data(any) addr:0x020bd878
FR_tbl kind:data(any) addr:0x020bd91c
IT_tbl kind:data(any) addr:0x020bd9c0
ES_tbl kind:data(any) addr:0x020bda64
actionPattern kind:data(any) addr:0x020bdb08
data_020bdb80 kind:data(any) addr:0x020bdb80
data_020bdb88 kind:data(any) addr:0x020bdb88
data_020bdb94 kind:data(any) addr:0x020bdb94
data_020bdb98 kind:data(any) addr:0x020bdb98
data_020bdba0 kind:data(any) addr:0x020bdba0
data_020bdba8 kind:data(any) addr:0x020bdba8
data_020bdbac kind:data(any) addr:0x020bdbac
data_020bdbb0 kind:data(any) addr:0x020bdbb0
data_020bdbb4 kind:data(any) addr:0x020bdbb4
data_020bdbb8 kind:data(any) addr:0x020bdbb8
data_020bdbc4 kind:data(any) addr:0x020bdbc4
data_020bdbc8 kind:data(any) addr:0x020bdbc8
data_020bdbcc kind:data(any) addr:0x020bdbcc
data_020bdbd0 kind:data(any) addr:0x020bdbd0
data_020bdbd4 kind:data(any) addr:0x020bdbd4
data_020bdbe0 kind:data(any) addr:0x020bdbe0
data_020bdbec kind:data(any) addr:0x020bdbec
data_020bdbf8 kind:data(any) addr:0x020bdbf8
data_020bdc04 kind:data(any) addr:0x020bdc04
data_020bdc10 kind:data(any) addr:0x020bdc10
data_020bdc1c kind:data(any) addr:0x020bdc1c
data_020bdc28 kind:data(any) addr:0x020bdc28
data_020bdc34 kind:data(any) addr:0x020bdc34
data_020bdc40 kind:data(any) addr:0x020bdc40
data_020bdc4c kind:data(any) addr:0x020bdc4c
data_020bdc58 kind:data(any) addr:0x020bdc58
data_020bdc64 kind:data(any) addr:0x020bdc64
data_020bdc70 kind:data(any) addr:0x020bdc70
data_020bdc74 kind:data(any) addr:0x020bdc74
data_020bdc78 kind:data(any) addr:0x020bdc78
data_020bdc7c kind:data(any) addr:0x020bdc7c
data_020bdc80 kind:data(any) addr:0x020bdc80
data_020bdc84 kind:data(any) addr:0x020bdc84
data_020bdc88 kind:data(any) addr:0x020bdc88
data_020bdc8c kind:data(any) addr:0x020bdc8c
data_020bdc90 kind:data(any) addr:0x020bdc90
data_020bdca0 kind:data(any) addr:0x020bdca0
data_020bdca8 kind:data(any) addr:0x020bdca8
data_020bdcc4 kind:data(any) addr:0x020bdcc4
data_020bdcfc kind:data(any) addr:0x020bdcfc
data_020bdd26 kind:data(any) addr:0x020bdd26
data_020bdd5e kind:data(any) addr:0x020bdd5e
data_020bdd96 kind:data(any) addr:0x020bdd96
data_020bdda8 kind:data(any) addr:0x020bdda8
data_020bdde8 kind:data(any) addr:0x020bdde8
data_020bde14 kind:data(any) addr:0x020bde14
data_020bdef4 kind:data(any) addr:0x020bdef4
data_020bdefc kind:data(any) addr:0x020bdefc
data_020bdf00 kind:data(any) addr:0x020bdf00
data_020bdf04 kind:data(any) addr:0x020bdf04
data_020bdf08 kind:data(any) addr:0x020bdf08
data_020bdf1c kind:data(any) addr:0x020bdf1c
data_020bdf64 kind:data(any) addr:0x020bdf64
data_020bdf80 kind:data(any) addr:0x020bdf80
data_020bdf98 kind:data(any) addr:0x020bdf98
data_020bdfb0 kind:data(any) addr:0x020bdfb0
data_020bdfc8 kind:data(any) addr:0x020bdfc8
data_020bdfe0 kind:data(any) addr:0x020bdfe0
data_020bdff8 kind:data(any) addr:0x020bdff8
data_020be010 kind:data(any) addr:0x020be010
data_020be020 kind:data(any) addr:0x020be020
_ZTVN6status16DQ4HaveEquipmentE kind:data(byte[12]) addr:0x020be028
data_020be03c kind:data(any) addr:0x020be03c
data_020be04c kind:data(any) addr:0x020be04c
data_020be050 kind:data(any) addr:0x020be050
data_020be054 kind:data(any) addr:0x020be054
data_020be058 kind:data(any) addr:0x020be058
data_020be05c kind:data(any) addr:0x020be05c
data_020be060 kind:data(any) addr:0x020be060
data_020be064 kind:data(any) addr:0x020be064
data_020be068 kind:data(any) addr:0x020be068
data_020be06c kind:data(any) addr:0x020be06c
data_020be070 kind:data(any) addr:0x020be070
data_020be074 kind:data(any) addr:0x020be074
data_020be078 kind:data(any) addr:0x020be078
data_020be07c kind:data(any) addr:0x020be07c
data_020be080 kind:data(any) addr:0x020be080
data_020be084 kind:data(any) addr:0x020be084
data_020be088 kind:data(any) addr:0x020be088
data_020be08c kind:data(any) addr:0x020be08c
data_020be090 kind:data(any) addr:0x020be090
data_020be094 kind:data(any) addr:0x020be094
data_020be098 kind:data(any) addr:0x020be098
data_020be09c kind:data(any) addr:0x020be09c
data_020be0a0 kind:data(any) addr:0x020be0a0
data_020be0a4 kind:data(any) addr:0x020be0a4
data_020be0a8 kind:data(any) addr:0x020be0a8
data_020be0ac kind:data(any) addr:0x020be0ac
data_020be0b4 kind:data(any) addr:0x020be0b4
data_020be0bc kind:data(any) addr:0x020be0bc
data_020be0c4 kind:data(any) addr:0x020be0c4
data_020be0cc kind:data(any) addr:0x020be0cc
data_020be0d4 kind:data(any) addr:0x020be0d4
data_020be0dc kind:data(any) addr:0x020be0dc
data_020be0e4 kind:data(any) addr:0x020be0e4
data_020be0ec kind:data(any) addr:0x020be0ec
data_020be0f4 kind:data(any) addr:0x020be0f4
data_020be0fc kind:data(any) addr:0x020be0fc
data_020be10c kind:data(any) addr:0x020be10c
data_020be124 kind:data(any) addr:0x020be124
data_020be13c kind:data(any) addr:0x020be13c
data_020be154 kind:data(any) addr:0x020be154
data_020be16c kind:data(any) addr:0x020be16c
data_020be184 kind:data(any) addr:0x020be184
data_020be19c kind:data(any) addr:0x020be19c
data_020be1b4 kind:data(any) addr:0x020be1b4
data_020be1cc kind:data(any) addr:0x020be1cc
data_020be1e4 kind:data(any) addr:0x020be1e4
data_020be1fc kind:data(any) addr:0x020be1fc
data_020be214 kind:data(any) addr:0x020be214
data_020be22c kind:data(any) addr:0x020be22c
data_020be23c kind:data(any) addr:0x020be23c
data_020be244 kind:data(any) addr:0x020be244
data_020be258 kind:data(any) addr:0x020be258
data_020be274 kind:data(any) addr:0x020be274
data_020be288 kind:data(any) addr:0x020be288
data_020be29c kind:data(any) addr:0x020be29c
data_020be2b0 kind:data(any) addr:0x020be2b0
data_020be2c0 kind:data(any) addr:0x020be2c0
data_020be2e4 kind:data(any) addr:0x020be2e4
data_020be30c kind:data(any) addr:0x020be30c
data_020be330 kind:data(any) addr:0x020be330
data_020be358 kind:data(any) addr:0x020be358
data_020be384 kind:data(any) addr:0x020be384
data_020be3a4 kind:data(any) addr:0x020be3a4
data_020be3c4 kind:data(any) addr:0x020be3c4
data_020be3e8 kind:data(any) addr:0x020be3e8
data_020be40c kind:data(any) addr:0x020be40c
data_020be42c kind:data(any) addr:0x020be42c
data_020be450 kind:data(any) addr:0x020be450
data_020be494 kind:data(any) addr:0x020be494
data_020be4d8 kind:data(any) addr:0x020be4d8
data_020be4f0 kind:data(any) addr:0x020be4f0
data_020be504 kind:data(any) addr:0x020be504
data_020be518 kind:data(any) addr:0x020be518
data_020be530 kind:data(any) addr:0x020be530
data_020be550 kind:data(any) addr:0x020be550
data_020be568 kind:data(any) addr:0x020be568
data_020be578 kind:data(any) addr:0x020be578
data_020be588 kind:data(any) addr:0x020be588
data_020be598 kind:data(any) addr:0x020be598
data_020be5a0 kind:data(any) addr:0x020be5a0
data_020be5a8 kind:data(any) addr:0x020be5a8
data_020be5b4 kind:data(any) addr:0x020be5b4
data_020be5c0 kind:data(any) addr:0x020be5c0
data_020be5c8 kind:data(any) addr:0x020be5c8
data_020be5d4 kind:data(any) addr:0x020be5d4
data_020be5d8 kind:data(any) addr:0x020be5d8
data_020be5e4 kind:data(any) addr:0x020be5e4
data_020be5ec kind:data(any) addr:0x020be5ec
data_020be5f4 kind:data(any) addr:0x020be5f4
data_020be604 kind:data(any) addr:0x020be604
data_020be614 kind:data(any) addr:0x020be614
data_020be61c kind:data(any) addr:0x020be61c
data_020be630 kind:data(any) addr:0x020be630
data_020be644 kind:data(any) addr:0x020be644
data_020be648 kind:data(any) addr:0x020be648
data_020be658 kind:data(any) addr:0x020be658
data_020be668 kind:data(any) addr:0x020be668
data_020be67c kind:data(any) addr:0x020be67c
data_020be694 kind:data(any) addr:0x020be694
data_020be6a8 kind:data(any) addr:0x020be6a8
data_020be6c0 kind:data(any) addr:0x020be6c0
data_020be6d4 kind:data(any) addr:0x020be6d4
data_020be6f4 kind:data(any) addr:0x020be6f4
_ZTVN6status15CharacterStatusE kind:data(byte[28]) addr:0x020be6f8
data_020be71c kind:data(any) addr:0x020be71c
data_020be74c kind:data(any) addr:0x020be74c
data_020be760 kind:data(any) addr:0x020be760
data_020be768 kind:data(any) addr:0x020be768
data_020be784 kind:data(any) addr:0x020be784
data_020be7a0 kind:data(any) addr:0x020be7a0
data_020be7bc kind:data(any) addr:0x020be7bc
data_020be7e6 kind:data(any) addr:0x020be7e6
data_020be81e kind:data(any) addr:0x020be81e
data_020be864 kind:data(any) addr:0x020be864
data_020be878 kind:data(any) addr:0x020be878
data_020be880 kind:data(any) addr:0x020be880
data_020be894 kind:data(any) addr:0x020be894
data_020be8a8 kind:data(any) addr:0x020be8a8
data_020be8b0 kind:data(any) addr:0x020be8b0
data_020be8b8 kind:data(any) addr:0x020be8b8
data_020be8c0 kind:data(any) addr:0x020be8c0
data_020be8c8 kind:data(any) addr:0x020be8c8
data_020be8d0 kind:data(any) addr:0x020be8d0
data_020be8d8 kind:data(any) addr:0x020be8d8
data_020be8e0 kind:data(any) addr:0x020be8e0
data_020be8e8 kind:data(any) addr:0x020be8e8
data_020be8f0 kind:data(any) addr:0x020be8f0
data_020be8f8 kind:data(any) addr:0x020be8f8
data_020be900 kind:data(any) addr:0x020be900
data_020be908 kind:data(any) addr:0x020be908
data_020be910 kind:data(any) addr:0x020be910
data_020be918 kind:data(any) addr:0x020be918
data_020be920 kind:data(any) addr:0x020be920
data_020be928 kind:data(any) addr:0x020be928
data_020be930 kind:data(any) addr:0x020be930
data_020be938 kind:data(any) addr:0x020be938
data_020be940 kind:data(any) addr:0x020be940
data_020be948 kind:data(any) addr:0x020be948
data_020be950 kind:data(any) addr:0x020be950
data_020be958 kind:data(any) addr:0x020be958
data_020be960 kind:data(any) addr:0x020be960
data_020be970 kind:data(any) addr:0x020be970
data_020be9a0 kind:data(any) addr:0x020be9a0
data_020be9a4 kind:data(any) addr:0x020be9a4
data_020be9c8 kind:data(any) addr:0x020be9c8
data_020be9cc kind:data(any) addr:0x020be9cc
data_020be9d8 kind:data(any) addr:0x020be9d8
data_020be9ec kind:data(any) addr:0x020be9ec
data_020bea00 kind:data(any) addr:0x020bea00
data_020bea14 kind:data(any) addr:0x020bea14
data_020bea28 kind:data(any) addr:0x020bea28
data_020bea3c kind:data(any) addr:0x020bea3c
data_020bea50 kind:data(any) addr:0x020bea50
data_020bea5c kind:data(any) addr:0x020bea5c
data_020bea60 kind:data(any) addr:0x020bea60
data_020bea78 kind:data(any) addr:0x020bea78
data_020bea88 kind:data(any) addr:0x020bea88
data_020bea94 kind:data(any) addr:0x020bea94
data_020bea9c kind:data(any) addr:0x020bea9c
data_020beaa0 kind:data(any) addr:0x020beaa0
data_020beaac kind:data(any) addr:0x020beaac
data_020beab0 kind:data(any) addr:0x020beab0
data_020beab4 kind:data(any) addr:0x020beab4
data_020beab8 kind:data(any) addr:0x020beab8
data_020beabc kind:data(any) addr:0x020beabc
data_020beac8 kind:data(any) addr:0x020beac8
data_020bead4 kind:data(any) addr:0x020bead4
data_020beae0 kind:data(any) addr:0x020beae0
data_020beae4 kind:data(any) addr:0x020beae4
data_020beae8 kind:data(any) addr:0x020beae8
data_020beaec kind:data(any) addr:0x020beaec
data_020beaf0 kind:data(any) addr:0x020beaf0
data_020beaf4 kind:data(any) addr:0x020beaf4
data_020beaf8 kind:data(any) addr:0x020beaf8
data_020beafc kind:data(any) addr:0x020beafc
data_020beb00 kind:data(any) addr:0x020beb00
data_020beb04 kind:data(any) addr:0x020beb04
data_020beb08 kind:data(any) addr:0x020beb08
data_020beb0c kind:data(any) addr:0x020beb0c
data_020beb10 kind:data(any) addr:0x020beb10
data_020beb14 kind:data(any) addr:0x020beb14
data_020beb18 kind:data(any) addr:0x020beb18
data_020beb1c kind:data(any) addr:0x020beb1c
data_020beb20 kind:data(any) addr:0x020beb20
data_020beb24 kind:data(any) addr:0x020beb24
data_020beb28 kind:data(any) addr:0x020beb28
data_020beb2c kind:data(any) addr:0x020beb2c
data_020beb30 kind:data(any) addr:0x020beb30
data_020beb34 kind:data(any) addr:0x020beb34
data_020beb38 kind:data(any) addr:0x020beb38
data_020beb3c kind:data(any) addr:0x020beb3c
data_020beb40 kind:data(any) addr:0x020beb40
data_020beb44 kind:data(any) addr:0x020beb44
data_020beb48 kind:data(any) addr:0x020beb48
data_020beb4c kind:data(any) addr:0x020beb4c
data_020beb50 kind:data(any) addr:0x020beb50
data_020beb54 kind:data(any) addr:0x020beb54
data_020beb58 kind:data(any) addr:0x020beb58
data_020beb64 kind:data(any) addr:0x020beb64
data_020beb78 kind:data(any) addr:0x020beb78
data_020beb8c kind:data(any) addr:0x020beb8c
data_020beb98 kind:data(any) addr:0x020beb98
data_020bebb8 kind:data(any) addr:0x020bebb8
data_020bebcc kind:data(any) addr:0x020bebcc
data_020bebd8 kind:data(any) addr:0x020bebd8
data_020bebe0 kind:data(any) addr:0x020bebe0
data_020bebe8 kind:data(any) addr:0x020bebe8
data_020bebf4 kind:data(any) addr:0x020bebf4
data_020bec00 kind:data(any) addr:0x020bec00
data_020bec0c kind:data(any) addr:0x020bec0c
data_020bec18 kind:data(any) addr:0x020bec18
data_020bec24 kind:data(any) addr:0x020bec24
data_020bec30 kind:data(any) addr:0x020bec30
data_020bec3c kind:data(any) addr:0x020bec3c
data_020bec48 kind:data(any) addr:0x020bec48
data_020bec54 kind:data(any) addr:0x020bec54
data_020bec68 kind:data(any) addr:0x020bec68
data_020beca0 kind:data(any) addr:0x020beca0
data_020becb8 kind:data(any) addr:0x020becb8
data_020becc8 kind:data(any) addr:0x020becc8
data_020beccc kind:data(any) addr:0x020beccc
data_020becd0 kind:data(any) addr:0x020becd0
data_020becd4 kind:data(any) addr:0x020becd4
data_020becd8 kind:data(any) addr:0x020becd8
data_020becdc kind:data(any) addr:0x020becdc
data_020bece0 kind:data(any) addr:0x020bece0
data_020bece4 kind:data(any) addr:0x020bece4
s_srout_map kind:data(any) addr:0x020bece8
data_020becf0 kind:data(any) addr:0x020becf0
data_020becf8 kind:data(any) addr:0x020becf8
data_020bed08 kind:data(any) addr:0x020bed08
data_020bed28 kind:data(any) addr:0x020bed28
data_020bed48 kind:data(any) addr:0x020bed48
data_020bed68 kind:data(any) addr:0x020bed68
data_020bed84 kind:data(any) addr:0x020bed84
data_020bed8c kind:data(any) addr:0x020bed8c
data_020bed94 kind:data(any) addr:0x020bed94
data_020bed9c kind:data(any) addr:0x020bed9c
data_020beda4 kind:data(any) addr:0x020beda4
data_020bedb0 kind:data(any) addr:0x020bedb0
data_020bedbc kind:data(any) addr:0x020bedbc
data_020bedc8 kind:data(any) addr:0x020bedc8
data_020bedd4 kind:data(any) addr:0x020bedd4
data_020beddc kind:data(any) addr:0x020beddc
data_020bede8 kind:data(any) addr:0x020bede8
data_020bedf4 kind:data(any) addr:0x020bedf4
data_020bedfc kind:data(any) addr:0x020bedfc
data_020bee04 kind:data(any) addr:0x020bee04
data_020bee0c kind:data(any) addr:0x020bee0c
data_020bee18 kind:data(any) addr:0x020bee18
data_020bee24 kind:data(any) addr:0x020bee24
data_020bee30 kind:data(any) addr:0x020bee30
data_020bee38 kind:data(any) addr:0x020bee38
data_020bee40 kind:data(any) addr:0x020bee40
data_020bee48 kind:data(any) addr:0x020bee48
data_020bee50 kind:data(any) addr:0x020bee50
data_020bee5c kind:data(any) addr:0x020bee5c
data_020bee64 kind:data(any) addr:0x020bee64
data_020bee6c kind:data(any) addr:0x020bee6c
data_020bee74 kind:data(any) addr:0x020bee74
data_020bee7c kind:data(any) addr:0x020bee7c
data_020bee84 kind:data(any) addr:0x020bee84
data_020bee8c kind:data(any) addr:0x020bee8c
data_020bee94 kind:data(any) addr:0x020bee94
data_020bee9c kind:data(any) addr:0x020bee9c
data_020beea4 kind:data(any) addr:0x020beea4
data_020beeb0 kind:data(any) addr:0x020beeb0
data_020beeb8 kind:data(any) addr:0x020beeb8
data_020beec0 kind:data(any) addr:0x020beec0
data_020beec8 kind:data(any) addr:0x020beec8
data_020beed0 kind:data(any) addr:0x020beed0
data_020beed8 kind:data(any) addr:0x020beed8
data_020beee0 kind:data(any) addr:0x020beee0
data_020beee8 kind:data(any) addr:0x020beee8
data_020beef0 kind:data(any) addr:0x020beef0
data_020beef8 kind:data(any) addr:0x020beef8
data_020bef00 kind:data(any) addr:0x020bef00
data_020bef08 kind:data(any) addr:0x020bef08
data_020bef10 kind:data(any) addr:0x020bef10
data_020bef18 kind:data(any) addr:0x020bef18
data_020bef20 kind:data(any) addr:0x020bef20
data_020bef28 kind:data(any) addr:0x020bef28
data_020bef30 kind:data(any) addr:0x020bef30
data_020bef38 kind:data(any) addr:0x020bef38
data_020bef40 kind:data(any) addr:0x020bef40
data_020bef48 kind:data(any) addr:0x020bef48
data_020bef50 kind:data(any) addr:0x020bef50
data_020bef58 kind:data(any) addr:0x020bef58
data_020bef64 kind:data(any) addr:0x020bef64
data_020bef6c kind:data(any) addr:0x020bef6c
data_020bef78 kind:data(any) addr:0x020bef78
data_020bef80 kind:data(any) addr:0x020bef80
data_020bef88 kind:data(any) addr:0x020bef88
data_020bef90 kind:data(any) addr:0x020bef90
data_020bef98 kind:data(any) addr:0x020bef98
data_020befa0 kind:data(any) addr:0x020befa0
data_020befa8 kind:data(any) addr:0x020befa8
data_020befb0 kind:data(any) addr:0x020befb0
data_020befb8 kind:data(any) addr:0x020befb8
data_020befc0 kind:data(any) addr:0x020befc0
data_020befc8 kind:data(any) addr:0x020befc8
data_020befd0 kind:data(any) addr:0x020befd0
data_020befd8 kind:data(any) addr:0x020befd8
data_020befe0 kind:data(any) addr:0x020befe0
data_020befe8 kind:data(any) addr:0x020befe8
data_020beff0 kind:data(any) addr:0x020beff0
data_020beff8 kind:data(any) addr:0x020beff8
data_020bf000 kind:data(any) addr:0x020bf000
data_020bf008 kind:data(any) addr:0x020bf008
data_020bf010 kind:data(any) addr:0x020bf010
data_020bf018 kind:data(any) addr:0x020bf018
data_020bf020 kind:data(any) addr:0x020bf020
data_020bf028 kind:data(any) addr:0x020bf028
data_020bf034 kind:data(any) addr:0x020bf034
data_020bf03c kind:data(any) addr:0x020bf03c
data_020bf048 kind:data(any) addr:0x020bf048
data_020bf050 kind:data(any) addr:0x020bf050
data_020bf05c kind:data(any) addr:0x020bf05c
data_020bf064 kind:data(any) addr:0x020bf064
data_020bf06c kind:data(any) addr:0x020bf06c
data_020bf074 kind:data(any) addr:0x020bf074
data_020bf07c kind:data(any) addr:0x020bf07c
data_020bf084 kind:data(any) addr:0x020bf084
data_020bf08c kind:data(any) addr:0x020bf08c
data_020bf094 kind:data(any) addr:0x020bf094
data_020bf09c kind:data(any) addr:0x020bf09c
data_020bf0a4 kind:data(any) addr:0x020bf0a4
data_020bf0ac kind:data(any) addr:0x020bf0ac
data_020bf0b4 kind:data(any) addr:0x020bf0b4
data_020bf0c4 kind:data(any) addr:0x020bf0c4
data_020bf0cc kind:data(any) addr:0x020bf0cc
data_020bf0d4 kind:data(any) addr:0x020bf0d4
data_020bf0e0 kind:data(any) addr:0x020bf0e0
data_020bf0e8 kind:data(any) addr:0x020bf0e8
data_020bf0f0 kind:data(any) addr:0x020bf0f0
data_020bf0f8 kind:data(any) addr:0x020bf0f8
data_020bf100 kind:data(any) addr:0x020bf100
data_020bf108 kind:data(any) addr:0x020bf108
data_020bf110 kind:data(any) addr:0x020bf110
data_020bf118 kind:data(any) addr:0x020bf118
data_020bf124 kind:data(any) addr:0x020bf124
data_020bf12c kind:data(any) addr:0x020bf12c
data_020bf134 kind:data(any) addr:0x020bf134
data_020bf13c kind:data(any) addr:0x020bf13c
data_020bf144 kind:data(any) addr:0x020bf144
data_020bf14c kind:data(any) addr:0x020bf14c
data_020bf154 kind:data(any) addr:0x020bf154
data_020bf15c kind:data(any) addr:0x020bf15c
data_020bf164 kind:data(any) addr:0x020bf164
data_020bf16c kind:data(any) addr:0x020bf16c
data_020bf174 kind:data(any) addr:0x020bf174
data_020bf17c kind:data(any) addr:0x020bf17c
data_020bf184 kind:data(any) addr:0x020bf184
data_020bf18c kind:data(any) addr:0x020bf18c
data_020bf198 kind:data(any) addr:0x020bf198
data_020bf1a4 kind:data(any) addr:0x020bf1a4
data_020bf1b0 kind:data(any) addr:0x020bf1b0
data_020bf1bc kind:data(any) addr:0x020bf1bc
data_020bf1c8 kind:data(any) addr:0x020bf1c8
data_020bf1d4 kind:data(any) addr:0x020bf1d4
data_020bf1e0 kind:data(any) addr:0x020bf1e0
data_020bf1ec kind:data(any) addr:0x020bf1ec
data_020bf1f8 kind:data(any) addr:0x020bf1f8
data_020bf204 kind:data(any) addr:0x020bf204
data_020bf210 kind:data(any) addr:0x020bf210
data_020bf21c kind:data(any) addr:0x020bf21c
data_020bf224 kind:data(any) addr:0x020bf224
data_020bf22c kind:data(any) addr:0x020bf22c
data_020bf234 kind:data(any) addr:0x020bf234
data_020bf240 kind:data(any) addr:0x020bf240
data_020bf248 kind:data(any) addr:0x020bf248
data_020bf250 kind:data(any) addr:0x020bf250
data_020bf258 kind:data(any) addr:0x020bf258
data_020bf264 kind:data(any) addr:0x020bf264
data_020bf270 kind:data(any) addr:0x020bf270
data_020bf278 kind:data(any) addr:0x020bf278
data_020bf284 kind:data(any) addr:0x020bf284
data_020bf290 kind:data(any) addr:0x020bf290
data_020bf29c kind:data(any) addr:0x020bf29c
data_020bf2a8 kind:data(any) addr:0x020bf2a8
data_020bf2b4 kind:data(any) addr:0x020bf2b4
data_020bf2c0 kind:data(any) addr:0x020bf2c0
data_020bf2cc kind:data(any) addr:0x020bf2cc
data_020bf2d4 kind:data(any) addr:0x020bf2d4
data_020bf2e0 kind:data(any) addr:0x020bf2e0
data_020bf2e8 kind:data(any) addr:0x020bf2e8
data_020bf2f4 kind:data(any) addr:0x020bf2f4
data_020bf2fc kind:data(any) addr:0x020bf2fc
data_020bf304 kind:data(any) addr:0x020bf304
data_020bf310 kind:data(any) addr:0x020bf310
data_020bf31c kind:data(any) addr:0x020bf31c
data_020bf328 kind:data(any) addr:0x020bf328
data_020bf334 kind:data(any) addr:0x020bf334
data_020bf33c kind:data(any) addr:0x020bf33c
data_020bf348 kind:data(any) addr:0x020bf348
data_020bf354 kind:data(any) addr:0x020bf354
data_020bf368 kind:data(any) addr:0x020bf368
data_020bf380 kind:data(any) addr:0x020bf380
data_020bf394 kind:data(any) addr:0x020bf394
data_020bf3a8 kind:data(any) addr:0x020bf3a8
data_020bf3bc kind:data(any) addr:0x020bf3bc
data_020bf3ca kind:data(any) addr:0x020bf3ca
data_020bf8e0 kind:data(any) addr:0x020bf8e0
data_020c0000 kind:data(any) addr:0x020c0000
data_020c0001 kind:data(any) addr:0x020c0001
data_020c000b kind:data(any) addr:0x020c000b
data_020c0198 kind:data(any) addr:0x020c0198
data_020c04f4 kind:data(any) addr:0x020c04f4
data_020c1118 kind:data(any) addr:0x020c1118
data_020c1120 kind:data(any) addr:0x020c1120
data_020c1130 kind:data(any) addr:0x020c1130
data_020c1138 kind:data(any) addr:0x020c1138
data_020c113c kind:data(any) addr:0x020c113c
data_020c1140 kind:data(any) addr:0x020c1140
data_020c1144 kind:data(any) addr:0x020c1144
data_020c114c kind:data(any) addr:0x020c114c
data_020c1154 kind:data(any) addr:0x020c1154
data_020c115c kind:data(any) addr:0x020c115c
data_020c1160 kind:data(any) addr:0x020c1160
data_020c116c kind:data(any) addr:0x020c116c
data_020c1178 kind:data(any) addr:0x020c1178
data_020c1190 kind:data(any) addr:0x020c1190
data_020c119c kind:data(any) addr:0x020c119c
data_020c11b4 kind:data(any) addr:0x020c11b4
data_020c11cc kind:data(any) addr:0x020c11cc
data_020c11e4 kind:data(any) addr:0x020c11e4
data_020c11fc kind:data(any) addr:0x020c11fc
data_020c1214 kind:data(any) addr:0x020c1214
data_020c122c kind:data(any) addr:0x020c122c
data_020c1244 kind:data(any) addr:0x020c1244
data_020c125c kind:data(any) addr:0x020c125c
data_020c1290 kind:data(any) addr:0x020c1290
data_020c12c4 kind:data(any) addr:0x020c12c4
data_020c12f0 kind:data(any) addr:0x020c12f0
data_020c130c kind:data(any) addr:0x020c130c
data_020c1328 kind:data(any) addr:0x020c1328
data_020c1330 kind:data(any) addr:0x020c1330
data_020c1340 kind:data(any) addr:0x020c1340
data_020c135c kind:data(any) addr:0x020c135c
data_020c1384 kind:data(any) addr:0x020c1384
data_020c1398 kind:data(any) addr:0x020c1398
data_020c13a0 kind:data(any) addr:0x020c13a0
data_020c13a8 kind:data(any) addr:0x020c13a8
data_020c13c8 kind:data(any) addr:0x020c13c8
data_020c13f0 kind:data(any) addr:0x020c13f0
data_020c1420 kind:data(any) addr:0x020c1420
data_020c1430 kind:data(any) addr:0x020c1430
data_020c1444 kind:data(any) addr:0x020c1444
data_020c1448 kind:data(any) addr:0x020c1448
data_020c144c kind:data(any) addr:0x020c144c
data_020c1450 kind:data(any) addr:0x020c1450
data_020c1454 kind:data(any) addr:0x020c1454
data_020c1458 kind:data(any) addr:0x020c1458
data_020c145c kind:data(any) addr:0x020c145c
data_020c1468 kind:data(any) addr:0x020c1468
data_020c147c kind:data(any) addr:0x020c147c
data_020c1480 kind:data(any) addr:0x020c1480
data_020c1488 kind:data(any) addr:0x020c1488
data_020c1498 kind:data(any) addr:0x020c1498
data_020c14a0 kind:data(any) addr:0x020c14a0
data_020c14bc kind:data(any) addr:0x020c14bc
data_020c14c1 kind:data(any) addr:0x020c14c1
data_020c14d8 kind:data(any) addr:0x020c14d8
data_020c14e8 kind:data(any) addr:0x020c14e8
data_020c1500 kind:data(any) addr:0x020c1500
data_020c1508 kind:data(any) addr:0x020c1508
data_020c1510 kind:data(any) addr:0x020c1510
data_020c1518 kind:data(any) addr:0x020c1518
data_020c1520 kind:data(any) addr:0x020c1520
data_020c152c kind:data(any) addr:0x020c152c
data_020c1538 kind:data(any) addr:0x020c1538
data_020c1544 kind:data(any) addr:0x020c1544
data_020c1550 kind:data(any) addr:0x020c1550
data_020c1558 kind:data(any) addr:0x020c1558
data_020c155c kind:data(any) addr:0x020c155c
data_020c1564 kind:data(any) addr:0x020c1564
data_020c1568 kind:data(any) addr:0x020c1568
data_020c1570 kind:data(any) addr:0x020c1570
data_020c1578 kind:data(any) addr:0x020c1578
data_020c1580 kind:data(any) addr:0x020c1580
data_020c1588 kind:data(any) addr:0x020c1588
data_020c1594 kind:data(any) addr:0x020c1594
data_020c159c kind:data(any) addr:0x020c159c
data_020c15a4 kind:data(any) addr:0x020c15a4
data_020c15a8 kind:data(any) addr:0x020c15a8
data_020c15b4 kind:data(any) addr:0x020c15b4
data_020c15c8 kind:data(any) addr:0x020c15c8
data_020c15d0 kind:data(any) addr:0x020c15d0
data_020c15d8 kind:data(any) addr:0x020c15d8
data_020c15e0 kind:data(any) addr:0x020c15e0
data_020c15f0 kind:data(any) addr:0x020c15f0
data_020c15f8 kind:data(any) addr:0x020c15f8
data_020c160c kind:data(any) addr:0x020c160c
data_020c1620 kind:data(any) addr:0x020c1620
data_020c1634 kind:data(any) addr:0x020c1634
data_020c1648 kind:data(any) addr:0x020c1648
data_020c165c kind:data(any) addr:0x020c165c
data_020c1664 kind:data(any) addr:0x020c1664
data_020c166c kind:data(any) addr:0x020c166c
data_020c1680 kind:data(any) addr:0x020c1680
data_020c1694 kind:data(any) addr:0x020c1694
data_020c16a8 kind:data(any) addr:0x020c16a8
data_020c16bc kind:data(any) addr:0x020c16bc
data_020c16d0 kind:data(any) addr:0x020c16d0
data_020c16e4 kind:data(any) addr:0x020c16e4
data_020c16f8 kind:data(any) addr:0x020c16f8
data_020c170c kind:data(any) addr:0x020c170c
data_020c1720 kind:data(any) addr:0x020c1720
data_020c1734 kind:data(any) addr:0x020c1734
data_020c1748 kind:data(any) addr:0x020c1748
data_020c175c kind:data(any) addr:0x020c175c
data_020c1770 kind:data(any) addr:0x020c1770
data_020c1784 kind:data(any) addr:0x020c1784
data_020c1798 kind:data(any) addr:0x020c1798
data_020c17ac kind:data(any) addr:0x020c17ac
data_020c17c0 kind:data(any) addr:0x020c17c0
data_020c17d4 kind:data(any) addr:0x020c17d4
data_020c17e8 kind:data(any) addr:0x020c17e8
data_020c17fc kind:data(any) addr:0x020c17fc
data_020c1810 kind:data(any) addr:0x020c1810
data_020c1824 kind:data(any) addr:0x020c1824
data_020c1838 kind:data(any) addr:0x020c1838
data_020c184c kind:data(any) addr:0x020c184c
data_020c1860 kind:data(any) addr:0x020c1860
data_020c1874 kind:data(any) addr:0x020c1874
data_020c1888 kind:data(any) addr:0x020c1888
data_020c189c kind:data(any) addr:0x020c189c
data_020c18b0 kind:data(any) addr:0x020c18b0
data_020c18b6 kind:data(any) addr:0x020c18b6
data_020c18d4 kind:data(any) addr:0x020c18d4
data_020c18ec kind:data(any) addr:0x020c18ec
data_020c1900 kind:data(any) addr:0x020c1900
data_020c1910 kind:data(any) addr:0x020c1910
data_020c1924 kind:data(any) addr:0x020c1924
data_020c1940 kind:data(any) addr:0x020c1940
data_020c195c kind:data(any) addr:0x020c195c
data_020c1978 kind:data(any) addr:0x020c1978
data_020c1994 kind:data(any) addr:0x020c1994
data_020c19b0 kind:data(any) addr:0x020c19b0
data_020c19c8 kind:data(any) addr:0x020c19c8
data_020c19ec kind:data(any) addr:0x020c19ec
data_020c1a10 kind:data(any) addr:0x020c1a10
data_020c1a40 kind:data(any) addr:0x020c1a40
data_020c1a6c kind:data(any) addr:0x020c1a6c
data_020c1a98 kind:data(any) addr:0x020c1a98
data_020c1ac0 kind:data(any) addr:0x020c1ac0
data_020c1ae8 kind:data(any) addr:0x020c1ae8
data_020c1b18 kind:data(any) addr:0x020c1b18
data_020c1b4c kind:data(any) addr:0x020c1b4c
data_020c1b7c kind:data(any) addr:0x020c1b7c
data_020c1b88 kind:data(any) addr:0x020c1b88
data_020c1b9c kind:data(any) addr:0x020c1b9c
data_020c1bcc kind:data(any) addr:0x020c1bcc
data_020c1bd8 kind:data(any) addr:0x020c1bd8
data_020c1be4 kind:data(any) addr:0x020c1be4
data_020c1be8 kind:data(any) addr:0x020c1be8
data_020c1bf4 kind:data(any) addr:0x020c1bf4
data_020c1bfc kind:data(any) addr:0x020c1bfc
data_020c1c00 kind:data(any) addr:0x020c1c00
data_020c1c08 kind:data(any) addr:0x020c1c08
data_020c1c0c kind:data(any) addr:0x020c1c0c
data_020c1c10 kind:data(any) addr:0x020c1c10
data_020c1c14 kind:data(any) addr:0x020c1c14
data_020c1c18 kind:data(any) addr:0x020c1c18
data_020c1c1c kind:data(any) addr:0x020c1c1c
data_020c1c20 kind:data(any) addr:0x020c1c20
data_020c1c4c kind:data(any) addr:0x020c1c4c
data_020c1c6c kind:data(any) addr:0x020c1c6c
data_020c1c88 kind:data(any) addr:0x020c1c88
data_020c1ca8 kind:data(any) addr:0x020c1ca8
data_020c1cc4 kind:data(any) addr:0x020c1cc4
data_020c1ce4 kind:data(any) addr:0x020c1ce4
data_020c1d00 kind:data(any) addr:0x020c1d00
data_020c1d20 kind:data(any) addr:0x020c1d20
data_020c1d38 kind:data(any) addr:0x020c1d38
data_020c1d48 kind:data(any) addr:0x020c1d48
data_020c1d4c kind:data(any) addr:0x020c1d4c
data_020c1d50 kind:data(any) addr:0x020c1d50
data_020c1d58 kind:data(any) addr:0x020c1d58
data_020c1d5c kind:data(any) addr:0x020c1d5c
data_020c1d60 kind:data(any) addr:0x020c1d60
data_020c1d64 kind:data(any) addr:0x020c1d64
data_020c1d70 kind:data(any) addr:0x020c1d70
data_020c1d90 kind:data(any) addr:0x020c1d90
data_020c1da8 kind:data(any) addr:0x020c1da8
data_020c1db4 kind:data(any) addr:0x020c1db4
data_020c1dd4 kind:data(any) addr:0x020c1dd4
data_020c1df0 kind:data(any) addr:0x020c1df0
data_020c1e00 kind:data(any) addr:0x020c1e00
data_020c1e04 kind:data(any) addr:0x020c1e04
data_020c1e10 kind:data(any) addr:0x020c1e10
data_020c1e2c kind:data(any) addr:0x020c1e2c
data_020c1e44 kind:data(any) addr:0x020c1e44
data_020c1e54 kind:data(any) addr:0x020c1e54
data_020c1e74 kind:data(any) addr:0x020c1e74
data_020c1e94 kind:data(any) addr:0x020c1e94
data_020c2134 kind:data(any) addr:0x020c2134
data_020c2138 kind:data(any) addr:0x020c2138
data_020c213c kind:data(any) addr:0x020c213c
data_020c2140 kind:data(any) addr:0x020c2140
data_020c2144 kind:data(any) addr:0x020c2144
data_020c2148 kind:data(any) addr:0x020c2148
data_020c214c kind:data(any) addr:0x020c214c
data_020c2150 kind:data(any) addr:0x020c2150
data_020c215c kind:data(any) addr:0x020c215c
data_020c2174 kind:data(any) addr:0x020c2174
data_020c218c kind:data(any) addr:0x020c218c
data_020c21a4 kind:data(any) addr:0x020c21a4
data_020c21bc kind:data(any) addr:0x020c21bc
data_020c21cc kind:data(any) addr:0x020c21cc
data_020c21f0 kind:data(any) addr:0x020c21f0
data_020c2214 kind:data(any) addr:0x020c2214
data_020c2240 kind:data(any) addr:0x020c2240
data_020c2250 kind:data(any) addr:0x020c2250
data_020c2274 kind:data(any) addr:0x020c2274
data_020c2298 kind:data(any) addr:0x020c2298
data_020c22bc kind:data(any) addr:0x020c22bc
data_020c22e0 kind:data(any) addr:0x020c22e0
data_020c22e4 kind:data(any) addr:0x020c22e4
data_020c2300 kind:data(any) addr:0x020c2300
data_020c231c kind:data(any) addr:0x020c231c
data_020c233c kind:data(any) addr:0x020c233c
data_020c235c kind:data(any) addr:0x020c235c
data_020c2378 kind:data(any) addr:0x020c2378
data_020c2398 kind:data(any) addr:0x020c2398
data_020c23b4 kind:data(any) addr:0x020c23b4
data_020c23d8 kind:data(any) addr:0x020c23d8
data_020c23f4 kind:data(any) addr:0x020c23f4
data_020c2404 kind:data(any) addr:0x020c2404
data_020c242c kind:data(any) addr:0x020c242c
data_020c245c kind:data(any) addr:0x020c245c
data_020c2470 kind:data(any) addr:0x020c2470
data_020c2474 kind:data(any) addr:0x020c2474
data_020c2480 kind:data(any) addr:0x020c2480
data_020c248c kind:data(any) addr:0x020c248c
data_020c2498 kind:data(any) addr:0x020c2498
data_020c24a4 kind:data(any) addr:0x020c24a4
data_020c24b0 kind:data(any) addr:0x020c24b0
data_020c24bc kind:data(any) addr:0x020c24bc
data_020c24d8 kind:data(any) addr:0x020c24d8
data_020c24dc kind:data(any) addr:0x020c24dc
data_020c24e4 kind:data(any) addr:0x020c24e4
data_020c24ec kind:data(any) addr:0x020c24ec
data_020c24f4 kind:data(any) addr:0x020c24f4
data_020c24fc kind:data(any) addr:0x020c24fc
data_020c2504 kind:data(any) addr:0x020c2504
data_020c250c kind:data(any) addr:0x020c250c
data_020c2514 kind:data(any) addr:0x020c2514
data_020c251c kind:data(any) addr:0x020c251c
data_020c2524 kind:data(any) addr:0x020c2524
data_020c252c kind:data(any) addr:0x020c252c
data_020c2534 kind:data(any) addr:0x020c2534
data_020c253c kind:data(any) addr:0x020c253c
data_020c2544 kind:data(any) addr:0x020c2544
data_020c254c kind:data(any) addr:0x020c254c
data_020c2554 kind:data(any) addr:0x020c2554
data_020c255c kind:data(any) addr:0x020c255c
data_020c2564 kind:data(any) addr:0x020c2564
data_020c256c kind:data(any) addr:0x020c256c
data_020c2574 kind:data(any) addr:0x020c2574
data_020c257c kind:data(any) addr:0x020c257c
data_020c2584 kind:data(any) addr:0x020c2584
data_020c258c kind:data(any) addr:0x020c258c
data_020c2594 kind:data(any) addr:0x020c2594
data_020c259c kind:data(any) addr:0x020c259c
data_020c25a4 kind:data(any) addr:0x020c25a4
data_020c25ac kind:data(any) addr:0x020c25ac
data_020c25b4 kind:data(any) addr:0x020c25b4
data_020c25bc kind:data(any) addr:0x020c25bc
data_020c25c4 kind:data(any) addr:0x020c25c4
data_020c25cc kind:data(any) addr:0x020c25cc
data_020c25d4 kind:data(any) addr:0x020c25d4
data_020c25dc kind:data(any) addr:0x020c25dc
data_020c25e4 kind:data(any) addr:0x020c25e4
data_020c25ec kind:data(any) addr:0x020c25ec
data_020c25f4 kind:data(any) addr:0x020c25f4
data_020c25fc kind:data(any) addr:0x020c25fc
data_020c2604 kind:data(any) addr:0x020c2604
data_020c260c kind:data(any) addr:0x020c260c
data_020c2618 kind:data(any) addr:0x020c2618
data_020c2624 kind:data(any) addr:0x020c2624
data_020c2630 kind:data(any) addr:0x020c2630
data_020c263c kind:data(any) addr:0x020c263c
data_020c2648 kind:data(any) addr:0x020c2648
data_020c2654 kind:data(any) addr:0x020c2654
data_020c2660 kind:data(any) addr:0x020c2660
data_020c266c kind:data(any) addr:0x020c266c
data_020c2678 kind:data(any) addr:0x020c2678
data_020c2684 kind:data(any) addr:0x020c2684
data_020c2690 kind:data(any) addr:0x020c2690
data_020c269c kind:data(any) addr:0x020c269c
data_020c26a8 kind:data(any) addr:0x020c26a8
data_020c26b4 kind:data(any) addr:0x020c26b4
data_020c26c0 kind:data(any) addr:0x020c26c0
data_020c26cc kind:data(any) addr:0x020c26cc
data_020c26d8 kind:data(any) addr:0x020c26d8
data_020c26e4 kind:data(any) addr:0x020c26e4
data_020c26f0 kind:data(any) addr:0x020c26f0
data_020c26fc kind:data(any) addr:0x020c26fc
data_020c2708 kind:data(any) addr:0x020c2708
data_020c2714 kind:data(any) addr:0x020c2714
data_020c2720 kind:data(any) addr:0x020c2720
data_020c272c kind:data(any) addr:0x020c272c
data_020c2738 kind:data(any) addr:0x020c2738
data_020c2744 kind:data(any) addr:0x020c2744
data_020c2750 kind:data(any) addr:0x020c2750
data_020c275c kind:data(any) addr:0x020c275c
data_020c2768 kind:data(any) addr:0x020c2768
data_020c2774 kind:data(any) addr:0x020c2774
data_020c2780 kind:data(any) addr:0x020c2780
data_020c278c kind:data(any) addr:0x020c278c
data_020c279c kind:data(any) addr:0x020c279c
data_020c27ac kind:data(any) addr:0x020c27ac
data_020c27bc kind:data(any) addr:0x020c27bc
data_020c27cc kind:data(any) addr:0x020c27cc
data_020c27dc kind:data(any) addr:0x020c27dc
data_020c27ec kind:data(any) addr:0x020c27ec
data_020c27fc kind:data(any) addr:0x020c27fc
data_020c280c kind:data(any) addr:0x020c280c
data_020c281c kind:data(any) addr:0x020c281c
data_020c282c kind:data(any) addr:0x020c282c
data_020c283c kind:data(any) addr:0x020c283c
data_020c284c kind:data(any) addr:0x020c284c
data_020c285c kind:data(any) addr:0x020c285c
data_020c286c kind:data(any) addr:0x020c286c
data_020c287c kind:data(any) addr:0x020c287c
data_020c288c kind:data(any) addr:0x020c288c
data_020c289c kind:data(any) addr:0x020c289c
data_020c28ac kind:data(any) addr:0x020c28ac
data_020c28bc kind:data(any) addr:0x020c28bc
data_020c28cc kind:data(any) addr:0x020c28cc
data_020c28dc kind:data(any) addr:0x020c28dc
data_020c28ec kind:data(any) addr:0x020c28ec
data_020c2900 kind:data(any) addr:0x020c2900
data_020c2914 kind:data(any) addr:0x020c2914
data_020c2918 kind:data(any) addr:0x020c2918
data_020c2c0c kind:data(any) addr:0x020c2c0c
data_020c2c14 kind:data(any) addr:0x020c2c14
data_020c2c1c kind:data(any) addr:0x020c2c1c
data_020c2c2c kind:data(any) addr:0x020c2c2c
data_020c2c30 kind:data(any) addr:0x020c2c30
data_020c2c3c kind:data(any) addr:0x020c2c3c
data_020c2c40 kind:data(any) addr:0x020c2c40
data_020c2c44 kind:data(any) addr:0x020c2c44
data_020c2c48 kind:data(any) addr:0x020c2c48
data_020c2c4c kind:data(any) addr:0x020c2c4c
data_020c2c50 kind:data(any) addr:0x020c2c50
data_020c2c54 kind:data(any) addr:0x020c2c54
data_020c2c58 kind:data(any) addr:0x020c2c58
data_020c2c5c kind:data(any) addr:0x020c2c5c
data_020c2c64 kind:data(any) addr:0x020c2c64
data_020c2c6c kind:data(any) addr:0x020c2c6c
data_020c2c74 kind:data(any) addr:0x020c2c74
data_020c2c7c kind:data(any) addr:0x020c2c7c
data_020c2c84 kind:data(any) addr:0x020c2c84
data_020c2c8c kind:data(any) addr:0x020c2c8c
data_020c2c94 kind:data(any) addr:0x020c2c94
data_020c2c9c kind:data(any) addr:0x020c2c9c
data_020c2ca4 kind:data(any) addr:0x020c2ca4
data_020c2cac kind:data(any) addr:0x020c2cac
data_020c2cb4 kind:data(any) addr:0x020c2cb4
data_020c2cbc kind:data(any) addr:0x020c2cbc
data_020c3244 kind:data(any) addr:0x020c3244
data_020c324c kind:data(any) addr:0x020c324c
data_020c3258 kind:data(any) addr:0x020c3258
data_020c325c kind:data(any) addr:0x020c325c
data_020c3260 kind:data(any) addr:0x020c3260
data_020c3268 kind:data(any) addr:0x020c3268
data_020c3270 kind:data(any) addr:0x020c3270
data_020c3278 kind:data(any) addr:0x020c3278
data_020c3280 kind:data(any) addr:0x020c3280
data_020c3288 kind:data(any) addr:0x020c3288
data_020c328c kind:data(any) addr:0x020c328c
data_020c3294 kind:data(any) addr:0x020c3294
data_020c329c kind:data(any) addr:0x020c329c
data_020c32a0 kind:data(any) addr:0x020c32a0
data_020c32a8 kind:data(any) addr:0x020c32a8
data_020c32ac kind:data(any) addr:0x020c32ac
data_020c32b4 kind:data(any) addr:0x020c32b4
data_020c32bc kind:data(any) addr:0x020c32bc
data_020c32c0 kind:data(any) addr:0x020c32c0
data_020c32c4 kind:data(any) addr:0x020c32c4
data_020c32cc kind:data(any) addr:0x020c32cc
data_020c32d0 kind:data(any) addr:0x020c32d0
data_020c32d4 kind:data(any) addr:0x020c32d4
data_020c32d8 kind:data(any) addr:0x020c32d8
data_020c32dc kind:data(any) addr:0x020c32dc
data_020c32e0 kind:data(any) addr:0x020c32e0
data_020c32e4 kind:data(any) addr:0x020c32e4
data_020c32e8 kind:data(any) addr:0x020c32e8
data_020c3300 kind:data(any) addr:0x020c3300
data_020c3318 kind:data(any) addr:0x020c3318
data_020c331c kind:data(any) addr:0x020c331c
data_020c332c kind:data(any) addr:0x020c332c
data_020c336c kind:data(any) addr:0x020c336c
data_020c3384 kind:data(any) addr:0x020c3384
data_020c3394 kind:data(any) addr:0x020c3394
data_020c3398 kind:data(any) addr:0x020c3398
data_020c33a0 kind:data(any) addr:0x020c33a0
data_020c33a8 kind:data(any) addr:0x020c33a8
data_020c33b0 kind:data(any) addr:0x020c33b0
data_020c33b8 kind:data(any) addr:0x020c33b8
data_020c33c0 kind:data(any) addr:0x020c33c0
data_020c33c4 kind:data(any) addr:0x020c33c4
data_020c33d0 kind:data(any) addr:0x020c33d0
data_020c33e4 kind:data(any) addr:0x020c33e4
data_020c33f0 kind:data(any) addr:0x020c33f0
data_020c33f2 kind:data(any) addr:0x020c33f2
data_020c3908 kind:data(any) addr:0x020c3908
data_020c3924 kind:data(any) addr:0x020c3924
data_020c3940 kind:data(any) addr:0x020c3940
data_020c395c kind:data(any) addr:0x020c395c
data_020c3960 kind:data(any) addr:0x020c3960
data_020c3964 kind:data(any) addr:0x020c3964
data_020c3968 kind:data(any) addr:0x020c3968
data_020c396c kind:data(any) addr:0x020c396c
data_020c3970 kind:data(any) addr:0x020c3970
data_020c3974 kind:data(any) addr:0x020c3974
data_020c3978 kind:data(any) addr:0x020c3978
data_020c397c kind:data(any) addr:0x020c397c
data_020c3980 kind:data(any) addr:0x020c3980
data_020c3984 kind:data(any) addr:0x020c3984
data_020c3988 kind:data(any) addr:0x020c3988
data_020c398c kind:data(any) addr:0x020c398c
data_020c3998 kind:data(any) addr:0x020c3998
data_020c39ac kind:data(any) addr:0x020c39ac
data_020c39bc kind:data(any) addr:0x020c39bc
data_020c39c4 kind:data(any) addr:0x020c39c4
data_020c39d0 kind:data(any) addr:0x020c39d0
data_020c39d4 kind:data(any) addr:0x020c39d4
data_020c39d8 kind:data(any) addr:0x020c39d8
data_020c39dc kind:data(any) addr:0x020c39dc
data_020c39e0 kind:data(any) addr:0x020c39e0
data_020c39e4 kind:data(any) addr:0x020c39e4
data_020c39e8 kind:data(any) addr:0x020c39e8
data_020c39ec kind:data(any) addr:0x020c39ec
data_020c39f0 kind:data(any) addr:0x020c39f0
data_020c39f4 kind:data(any) addr:0x020c39f4
data_020c3a00 kind:data(any) addr:0x020c3a00
data_020c3a10 kind:data(any) addr:0x020c3a10
data_020c3a18 kind:data(any) addr:0x020c3a18
data_020c3a20 kind:data(any) addr:0x020c3a20
data_020c3a24 kind:data(any) addr:0x020c3a24
data_020c3a28 kind:data(any) addr:0x020c3a28
data_020c3a2c kind:data(any) addr:0x020c3a2c
data_020c3a30 kind:data(any) addr:0x020c3a30
data_020c3a34 kind:data(any) addr:0x020c3a34
data_020c3a38 kind:data(any) addr:0x020c3a38
data_020c3a3c kind:data(any) addr:0x020c3a3c
data_020c3a40 kind:data(any) addr:0x020c3a40
data_020c3a44 kind:data(any) addr:0x020c3a44
data_020c3a48 kind:data(any) addr:0x020c3a48
data_020c3a54 kind:data(any) addr:0x020c3a54
data_020c3a64 kind:data(any) addr:0x020c3a64
data_020c3a80 kind:data(any) addr:0x020c3a80
data_020c3a8c kind:data(any) addr:0x020c3a8c
data_020c3aac kind:data(any) addr:0x020c3aac
data_020c3ab0 kind:data(any) addr:0x020c3ab0
data_020c3ac0 kind:data(any) addr:0x020c3ac0
data_020c3ad4 kind:data(any) addr:0x020c3ad4
data_020c3ae4 kind:data(any) addr:0x020c3ae4
data_020c3aec kind:data(any) addr:0x020c3aec
data_020c3b00 kind:data(any) addr:0x020c3b00
data_020c3b34 kind:data(any) addr:0x020c3b34
data_020c3b60 kind:data(any) addr:0x020c3b60
data_020c3b64 kind:data(any) addr:0x020c3b64
data_020c3b68 kind:data(any) addr:0x020c3b68
data_020c3b74 kind:data(any) addr:0x020c3b74
data_020c3ba8 kind:data(any) addr:0x020c3ba8
data_020c3bac kind:data(any) addr:0x020c3bac
data_020c3bb0 kind:data(any) addr:0x020c3bb0
data_020c3bb4 kind:data(any) addr:0x020c3bb4
data_020c3bb8 kind:data(any) addr:0x020c3bb8
data_020c3bbc kind:data(any) addr:0x020c3bbc
data_020c3bc0 kind:data(any) addr:0x020c3bc0
data_020c3bcc kind:data(any) addr:0x020c3bcc
data_020c3be8 kind:data(any) addr:0x020c3be8
data_020c3bf4 kind:data(any) addr:0x020c3bf4
data_020c3bf8 kind:data(any) addr:0x020c3bf8
data_020c3bfc kind:data(any) addr:0x020c3bfc
data_020c3c08 kind:data(any) addr:0x020c3c08
data_020c3c20 kind:data(any) addr:0x020c3c20
data_020c3c58 kind:data(any) addr:0x020c3c58
data_020c3c88 kind:data(any) addr:0x020c3c88
data_020c3c8c kind:data(any) addr:0x020c3c8c
data_020c3c90 kind:data(any) addr:0x020c3c90
data_020c3cc4 kind:data(any) addr:0x020c3cc4
data_020c3cc8 kind:data(any) addr:0x020c3cc8
data_020c3ce0 kind:data(any) addr:0x020c3ce0
data_020c3cf8 kind:data(any) addr:0x020c3cf8
data_020c3d10 kind:data(any) addr:0x020c3d10
data_020c3d28 kind:data(any) addr:0x020c3d28
data_020c3d64 kind:data(any) addr:0x020c3d64
data_020c3da8 kind:data(any) addr:0x020c3da8
data_020c3dac kind:data(any) addr:0x020c3dac
data_020c3db0 kind:data(any) addr:0x020c3db0
data_020c3db8 kind:data(any) addr:0x020c3db8
data_020c3dbc kind:data(any) addr:0x020c3dbc
data_020c3dc0 kind:data(any) addr:0x020c3dc0
data_020c3dc4 kind:data(any) addr:0x020c3dc4
data_020c3dc8 kind:data(any) addr:0x020c3dc8
data_020c3dcc kind:data(any) addr:0x020c3dcc
data_020c3dd0 kind:data(any) addr:0x020c3dd0
data_020c3dd4 kind:data(any) addr:0x020c3dd4
data_020c3dd8 kind:data(any) addr:0x020c3dd8
data_020c3ddc kind:data(any) addr:0x020c3ddc
data_020c3de0 kind:data(any) addr:0x020c3de0
data_020c3de4 kind:data(any) addr:0x020c3de4
data_020c3de8 kind:data(any) addr:0x020c3de8
data_020c3e34 kind:data(any) addr:0x020c3e34
data_020c3e40 kind:data(any) addr:0x020c3e40
data_020c3e4c kind:data(any) addr:0x020c3e4c
data_020c3e5c kind:data(any) addr:0x020c3e5c
data_020c3e60 kind:data(any) addr:0x020c3e60
data_020c3e68 kind:data(any) addr:0x020c3e68
data_020c3e6c kind:data(any) addr:0x020c3e6c
data_020c3e7c kind:data(any) addr:0x020c3e7c
data_020c3e8c kind:data(any) addr:0x020c3e8c
data_020c3ecc kind:data(any) addr:0x020c3ecc
data_020c3ed0 kind:data(any) addr:0x020c3ed0
data_020c3ed8 kind:data(any) addr:0x020c3ed8
data_020c3efc kind:data(any) addr:0x020c3efc
data_020c3f08 kind:data(any) addr:0x020c3f08
data_020c3f14 kind:data(any) addr:0x020c3f14
data_020c3f18 kind:data(any) addr:0x020c3f18
data_020c3f20 kind:data(any) addr:0x020c3f20
data_020c3f44 kind:data(any) addr:0x020c3f44
data_020c3f50 kind:data(any) addr:0x020c3f50
data_020c3f5c kind:data(any) addr:0x020c3f5c
data_020c3fdc kind:data(any) addr:0x020c3fdc
data_020c3ffc kind:data(any) addr:0x020c3ffc
data_020c401c kind:data(any) addr:0x020c401c
data_020c403c kind:data(any) addr:0x020c403c
data_020c4040 kind:data(any) addr:0x020c4040
data_020c4044 kind:data(any) addr:0x020c4044
data_020c4048 kind:data(any) addr:0x020c4048
data_020c404c kind:data(any) addr:0x020c404c
data_020c405c kind:data(any) addr:0x020c405c
data_020c4060 kind:data(any) addr:0x020c4060
data_020c406c kind:data(any) addr:0x020c406c
data_020c4074 kind:data(any) addr:0x020c4074
data_020c4080 kind:data(any) addr:0x020c4080
data_020c408c kind:data(any) addr:0x020c408c
data_020c4094 kind:data(any) addr:0x020c4094
data_020c40a0 kind:data(any) addr:0x020c40a0
data_020c40ac kind:data(any) addr:0x020c40ac
data_020c40d0 kind:data(any) addr:0x020c40d0
data_020c40d4 kind:data(any) addr:0x020c40d4
data_020c40d8 kind:data(any) addr:0x020c40d8
data_020c40dc kind:data(any) addr:0x020c40dc
data_020c40e0 kind:data(any) addr:0x020c40e0
data_020c40e4 kind:data(any) addr:0x020c40e4
data_020c40e8 kind:data(any) addr:0x020c40e8
data_020c40ec kind:data(any) addr:0x020c40ec
data_020c40f0 kind:data(any) addr:0x020c40f0
data_020c40fc kind:data(any) addr:0x020c40fc
data_020c4110 kind:data(any) addr:0x020c4110
data_020c4124 kind:data(any) addr:0x020c4124
data_020c4138 kind:data(any) addr:0x020c4138
data_020c414c kind:data(any) addr:0x020c414c
data_020c4158 kind:data(any) addr:0x020c4158
data_020c4160 kind:data(any) addr:0x020c4160
data_020c4164 kind:data(any) addr:0x020c4164
data_020c42a8 kind:data(any) addr:0x020c42a8
data_020c42b0 kind:data(any) addr:0x020c42b0
data_020c42d8 kind:data(any) addr:0x020c42d8
data_020c42e8 kind:data(any) addr:0x020c42e8
data_020c4320 kind:data(any) addr:0x020c4320
data_020c4328 kind:data(any) addr:0x020c4328
data_020c4358 kind:data(any) addr:0x020c4358
data_020c43a8 kind:data(any) addr:0x020c43a8
data_020c43c4 kind:data(any) addr:0x020c43c4
data_020c43e4 kind:data(any) addr:0x020c43e4
data_020c4404 kind:data(any) addr:0x020c4404
data_020c4424 kind:data(any) addr:0x020c4424
data_020c4440 kind:data(any) addr:0x020c4440
data_020c4460 kind:data(any) addr:0x020c4460
data_020c447c kind:data(any) addr:0x020c447c
data_020c449c kind:data(any) addr:0x020c449c
data_020c44bc kind:data(any) addr:0x020c44bc
data_020c44cc kind:data(any) addr:0x020c44cc
data_020c44d0 kind:data(any) addr:0x020c44d0
data_020c44d4 kind:data(any) addr:0x020c44d4
data_020c44d8 kind:data(any) addr:0x020c44d8
data_020c44dc kind:data(any) addr:0x020c44dc
data_020c44e0 kind:data(any) addr:0x020c44e0
data_020c44e4 kind:data(any) addr:0x020c44e4
data_020c44e8 kind:data(any) addr:0x020c44e8
data_020c44ec kind:data(any) addr:0x020c44ec
data_020c44f0 kind:data(any) addr:0x020c44f0
data_020c44f4 kind:data(any) addr:0x020c44f4
data_020c44f8 kind:data(any) addr:0x020c44f8
data_020c44fc kind:data(any) addr:0x020c44fc
data_020c4500 kind:data(any) addr:0x020c4500
data_020c4504 kind:data(any) addr:0x020c4504
data_020c4508 kind:data(any) addr:0x020c4508
data_020c450c kind:data(any) addr:0x020c450c
data_020c4510 kind:data(any) addr:0x020c4510
data_020c4514 kind:data(any) addr:0x020c4514
data_020c4518 kind:data(any) addr:0x020c4518
data_020c4524 kind:data(any) addr:0x020c4524
data_020c4544 kind:data(any) addr:0x020c4544
data_020c455c kind:data(any) addr:0x020c455c
data_020c4586 kind:data(any) addr:0x020c4586
data_020c45b0 kind:data(any) addr:0x020c45b0
data_020c4618 kind:data(any) addr:0x020c4618
data_020c4680 kind:data(any) addr:0x020c4680
data_020c472a kind:data(any) addr:0x020c472a
data_020c47d4 kind:data(any) addr:0x020c47d4
data_020c4894 kind:data(any) addr:0x020c4894
data_020c495c kind:data(any) addr:0x020c495c
data_020c4974 kind:data(any) addr:0x020c4974
data_020c4978 kind:data(any) addr:0x020c4978
data_020c497c kind:data(any) addr:0x020c497c
data_020c4980 kind:data(any) addr:0x020c4980
data_020c4984 kind:data(any) addr:0x020c4984
data_020c4988 kind:data(any) addr:0x020c4988
data_020c499c kind:data(any) addr:0x020c499c
data_020c49a0 kind:data(any) addr:0x020c49a0
data_020c49bc kind:data(any) addr:0x020c49bc
data_020c49c0 kind:data(any) addr:0x020c49c0
data_020c49d8 kind:data(any) addr:0x020c49d8
data_020c49e4 kind:data(any) addr:0x020c49e4
data_020c49f8 kind:data(any) addr:0x020c49f8
data_020c4a04 kind:data(any) addr:0x020c4a04
data_020c4a08 kind:data(any) addr:0x020c4a08
data_020c4a20 kind:bss addr:0x020c4a20
data_020c4a30 kind:bss addr:0x020c4a30
data_020c4b30 kind:bss addr:0x020c4b30
data_020c4b54 kind:bss addr:0x020c4b54
data_020c4b78 kind:bss addr:0x020c4b78
data_020c4c20 kind:bss addr:0x020c4c20
data_020c4c50 kind:bss addr:0x020c4c50
data_020c4d50 kind:bss addr:0x020c4d50
data_020c4d80 kind:bss addr:0x020c4d80
data_020c4d98 kind:bss addr:0x020c4d98
data_020c4e50 kind:bss addr:0x020c4e50
data_020c4f50 kind:bss addr:0x020c4f50
data_020c4f6c kind:bss addr:0x020c4f6c
data_020c4f70 kind:bss addr:0x020c4f70
data_020c4f78 kind:bss addr:0x020c4f78
data_020c4f84 kind:bss addr:0x020c4f84
data_020c4f94 kind:bss addr:0x020c4f94
data_020c4fa4 kind:bss addr:0x020c4fa4
data_020c4fb4 kind:bss addr:0x020c4fb4
data_020c4fe4 kind:bss addr:0x020c4fe4
data_020c4fe8 kind:bss addr:0x020c4fe8
data_020c4ff8 kind:bss addr:0x020c4ff8
data_020c5098 kind:bss addr:0x020c5098
data_020c509c kind:bss addr:0x020c509c
data_020c50e0 kind:bss addr:0x020c50e0
data_020c50e4 kind:bss addr:0x020c50e4
data_020c50e8 kind:bss addr:0x020c50e8
data_020c50f4 kind:bss addr:0x020c50f4
data_020c5118 kind:bss addr:0x020c5118
data_020c511c kind:bss addr:0x020c511c
data_020c5120 kind:bss addr:0x020c5120
data_020c5124 kind:bss addr:0x020c5124
data_020c5128 kind:bss addr:0x020c5128
data_020c5134 kind:bss addr:0x020c5134
data_020c5140 kind:bss addr:0x020c5140
data_020c514c kind:bss addr:0x020c514c
data_020c5158 kind:bss addr:0x020c5158
data_020c5164 kind:bss addr:0x020c5164
data_020c5170 kind:bss addr:0x020c5170
data_020c51c0 kind:bss addr:0x020c51c0
data_020c51c4 kind:bss addr:0x020c51c4
data_020c5220 kind:bss addr:0x020c5220
data_020c5228 kind:bss addr:0x020c5228
data_020c5298 kind:bss addr:0x020c5298
data_020c52b4 kind:bss addr:0x020c52b4
data_020c58bc kind:bss addr:0x020c58bc
data_020c6120 kind:bss addr:0x020c6120
data_020c6170 kind:bss addr:0x020c6170
data_020c6c00 kind:bss addr:0x020c6c00
data_020c6c0c kind:bss addr:0x020c6c0c
data_020c6c18 kind:bss addr:0x020c6c18
data_020c6c20 kind:bss addr:0x020c6c20
data_020c6c2c kind:bss addr:0x020c6c2c
data_020c6c5c kind:bss addr:0x020c6c5c
data_020c6c6c kind:bss addr:0x020c6c6c
data_020c6da4 kind:bss addr:0x020c6da4
data_020c6db0 kind:bss addr:0x020c6db0
data_020c6dbc kind:bss addr:0x020c6dbc
data_020c6e0c kind:bss addr:0x020c6e0c
data_020c6e5c kind:bss addr:0x020c6e5c
data_020c7464 kind:bss addr:0x020c7464
data_020c7470 kind:bss addr:0x020c7470
data_020c7498 kind:bss addr:0x020c7498
data_020c74a8 kind:bss addr:0x020c74a8
data_020c74ac kind:bss addr:0x020c74ac
data_020c74b8 kind:bss addr:0x020c74b8
data_020c7658 kind:bss addr:0x020c7658
data_020c766c kind:bss addr:0x020c766c
data_020c7678 kind:bss addr:0x020c7678
g_Global kind:bss addr:0x020c768c
data_020c774c kind:bss addr:0x020c774c
data_020c7768 kind:bss addr:0x020c7768
data_020c7774 kind:bss addr:0x020c7774
data_020c7784 kind:bss addr:0x020c7784
data_020c7798 kind:bss addr:0x020c7798
data_020c77a4 kind:bss addr:0x020c77a4
data_020c77b4 kind:bss addr:0x020c77b4
data_020c77c0 kind:bss addr:0x020c77c0
data_020c77d0 kind:bss addr:0x020c77d0
data_020c77dc kind:bss addr:0x020c77dc
data_020c77ec kind:bss addr:0x020c77ec
data_020c77f8 kind:bss addr:0x020c77f8
data_020c7808 kind:bss addr:0x020c7808
data_020c7814 kind:bss addr:0x020c7814
data_020c7824 kind:bss addr:0x020c7824
data_020c7830 kind:bss addr:0x020c7830
data_020c7840 kind:bss addr:0x020c7840
data_020c784c kind:bss addr:0x020c784c
data_020c785c kind:bss addr:0x020c785c
data_020c7868 kind:bss addr:0x020c7868
data_020c7878 kind:bss addr:0x020c7878
data_020c7884 kind:bss addr:0x020c7884
data_020c7894 kind:bss addr:0x020c7894
data_020c78a0 kind:bss addr:0x020c78a0
data_020c78b0 kind:bss addr:0x020c78b0
data_020c78bc kind:bss addr:0x020c78bc
data_020c78cc kind:bss addr:0x020c78cc
data_020c78d8 kind:bss addr:0x020c78d8
data_020c78e8 kind:bss addr:0x020c78e8
data_020c78f4 kind:bss addr:0x020c78f4
data_020c7904 kind:bss addr:0x020c7904
data_020c7910 kind:bss addr:0x020c7910
data_020c7920 kind:bss addr:0x020c7920
data_020c792c kind:bss addr:0x020c792c
data_020c793c kind:bss addr:0x020c793c
data_020c7948 kind:bss addr:0x020c7948
data_020c7958 kind:bss addr:0x020c7958
data_020c7964 kind:bss addr:0x020c7964
data_020c7974 kind:bss addr:0x020c7974
data_020c7980 kind:bss addr:0x020c7980
data_020c7990 kind:bss addr:0x020c7990
data_020c799c kind:bss addr:0x020c799c
data_020c79ac kind:bss addr:0x020c79ac
_ZN6status10excelParamE kind:bss(size=0xc4) addr:0x020c79b8
data_020c7a7c kind:bss addr:0x020c7a7c
data_020c7a84 kind:bss addr:0x020c7a84
data_020c7a88 kind:bss addr:0x020c7a88
data_020c7a8c kind:bss addr:0x020c7a8c
data_020c7a90 kind:bss addr:0x020c7a90
data_020c7a9c kind:bss addr:0x020c7a9c
data_020c7aa8 kind:bss addr:0x020c7aa8
originalPlayerFlag_ kind:bss addr:0x020c7ab4
_ZN6status7g_PartyE kind:bss(size=0x32c) addr:0x020c7b1c
data_020c7e48 kind:bss addr:0x020c7e48
data_020c7e50 kind:bss addr:0x020c7e50
originalPlayer_ kind:bss addr:0x020c8354
data_020c8860 kind:bss addr:0x020c8860
data_020d0000 kind:bss addr:0x020d0000
data_020d000c kind:bss addr:0x020d000c
data_020d01b9 kind:bss addr:0x020d01b9
data_020d0207 kind:bss addr:0x020d0207
data_020d02bc kind:bss addr:0x020d02bc
data_020d068c kind:bss addr:0x020d068c
data_020d0698 kind:bss addr:0x020d0698
_ZN6status10HaveAction5mode_E kind:bss addr:0x020d06ac
_ZN6status14HaveStatusInfo11globalFlag_E kind:bss addr:0x020d06b0
g_Option kind:bss addr:0x020d06b4
@15 kind:bss addr:0x020d06bc local
CallMonster kind:bss addr:0x020d06c8
callMonsterStatus_ kind:bss addr:0x020d06e8
_ZN6status9UseAction12ParamAction_E kind:bss addr:0x020d0718
data_020d0730 kind:bss addr:0x020d0730
data_020d0748 kind:bss addr:0x020d0748
_ZN6status15BaseActionData_E kind:bss addr:0x020d07d0
data_020d07e4 kind:bss addr:0x020d07e4
data_020d07e8 kind:bss addr:0x020d07e8
_ZN6status10BaseAction12tsukon2Flag_E kind:bss addr:0x020d07f0
_ZN6status10BaseAction11tsukonFlag_E kind:bss addr:0x020d07f4
_ZN6status10BaseAction12kaishinFlag_E kind:bss addr:0x020d07f8
data_020d07fc kind:bss addr:0x020d07fc
data_020d0800 kind:bss addr:0x020d0800
_ZN6status10BaseAction9joukFlag_E kind:bss addr:0x020d0804
_ZN6status10BaseAction10splitFlag_E kind:bss addr:0x020d0808
_ZN6status10BaseAction11doubleFlag_E kind:bss addr:0x020d080c
data_020d0810 kind:bss addr:0x020d0810
_ZN6status7UseItem12UseitemData_E kind:bss(size=0x74) addr:0x020d0820
_ZN6status16HaveBattleStatus16monsterinitData_E kind:bss addr:0x020d0894
data_020d08a4 kind:bss addr:0x020d08a4
_ZN6status16HaveBattleStatus15groupRoopIndex_E kind:bss addr:0x020d08b0
_ZN6status16HaveBattleStatus13groupControl_E kind:bss addr:0x020d08c0
_ZN6status11StageStatus9toramana_E kind:bss addr:0x020d08d0
data_020d08d4 kind:bss addr:0x020d08d4
g_Stage kind:bss(size=0x2d4) addr:0x020d08e0
data_020d0bb4 kind:bss addr:0x020d0bb4
_ZN6status6g_GameE kind:bss addr:0x020d0bc0
_ZN6status8ShopList8section_E kind:bss addr:0x020d0bcc
data_020d0bd8 kind:bss addr:0x020d0bd8
data_020d0be4 kind:bss addr:0x020d0be4
data_020d0c00 kind:bss addr:0x020d0c00
data_020d0e98 kind:bss addr:0x020d0e98
data_020d0ea4 kind:bss addr:0x020d0ea4
data_020d0eb0 kind:bss addr:0x020d0eb0
data_020d0ebc kind:bss addr:0x020d0ebc
data_020d0f3c kind:bss addr:0x020d0f3c
g_GlobalFlag kind:bss addr:0x020d0fbc
data_020d103c kind:bss addr:0x020d103c
data_020d1044 kind:bss addr:0x020d1044
data_020d1050 kind:bss addr:0x020d1050
data_020d105c kind:bss addr:0x020d105c
data_020d1068 kind:bss addr:0x020d1068
data_020d1074 kind:bss addr:0x020d1074
data_020d1080 kind:bss addr:0x020d1080
data_020d1090 kind:bss addr:0x020d1090
data_020d10a0 kind:bss addr:0x020d10a0
data_020d1b30 kind:bss addr:0x020d1b30
data_020d1b3c kind:bss addr:0x020d1b3c
data_020d1b44 kind:bss addr:0x020d1b44
data_020d1b48 kind:bss addr:0x020d1b48
data_020d1b5c kind:bss addr:0x020d1b5c
data_020d1b8c kind:bss addr:0x020d1b8c
data_020d1b9c kind:bss addr:0x020d1b9c
data_020d1cd4 kind:bss addr:0x020d1cd4
data_020d22dc kind:bss addr:0x020d22dc
_ZN6status12StatusChange22actionIndexFizzleZone_E kind:bss addr:0x020d2b90
data_020d2b94 kind:bss addr:0x020d2b94
_ZN6status12StatusChange17statusFizzleZone_E kind:bss addr:0x020d2ba0
data_020d2bac kind:bss addr:0x020d2bac
data_020d2bb0 kind:bss addr:0x020d2bb0
data_020d2bbc kind:bss addr:0x020d2bbc
data_020d6062 kind:bss addr:0x020d6062
data_020e0000 kind:bss addr:0x020e0000
data_020e000d kind:bss addr:0x020e000d
data_020e0287 kind:bss addr:0x020e0287
data_020e0fde kind:bss addr:0x020e0fde
data_020ec59c kind:bss addr:0x020ec59c
data_020ec5a0 kind:bss addr:0x020ec5a0
data_020ec5a4 kind:bss addr:0x020ec5a4
data_020ec5ac kind:bss addr:0x020ec5ac
data_020ec5b8 kind:bss addr:0x020ec5b8
data_020ec5c4 kind:bss addr:0x020ec5c4
data_020ec5d0 kind:bss addr:0x020ec5d0
data_020ec5dc kind:bss addr:0x020ec5dc
data_020ec5e8 kind:bss addr:0x020ec5e8
data_020ec5f4 kind:bss addr:0x020ec5f4
data_020ec600 kind:bss addr:0x020ec600
data_020ec60c kind:bss addr:0x020ec60c
data_020ec61c kind:bss addr:0x020ec61c
data_020ec630 kind:bss addr:0x020ec630
data_020ec658 kind:bss addr:0x020ec658
_ZN6status14g_BattleResultE kind:bss(size=0x6cc) addr:0x020ec664
data_020ecd30 kind:bss addr:0x020ecd30
_ZN6status15g_BattleHistoryE kind:bss(size=0x78) addr:0x020ecd3c
data_020ecdb4 kind:bss addr:0x020ecdb4
data_020ecdbc kind:bss addr:0x020ecdbc
data_020ece7c kind:bss addr:0x020ece7c
data_020ecf3c kind:bss addr:0x020ecf3c
data_020ecf40 kind:bss addr:0x020ecf40
data_020ecf44 kind:bss addr:0x020ecf44
data_020ecf48 kind:bss addr:0x020ecf48
data_020ecf4c kind:bss addr:0x020ecf4c
data_020ecf50 kind:bss addr:0x020ecf50
data_020ecf58 kind:bss addr:0x020ecf58
data_020ecf60 kind:bss addr:0x020ecf60
data_020ecf68 kind:bss addr:0x020ecf68
data_020ecf70 kind:bss addr:0x020ecf70
data_020ecf7c kind:bss addr:0x020ecf7c
data_020ecf88 kind:bss addr:0x020ecf88
data_020ecf94 kind:bss addr:0x020ecf94
data_020ecfa0 kind:bss addr:0x020ecfa0
data_020ecfac kind:bss addr:0x020ecfac
data_020ecfb8 kind:bss addr:0x020ecfb8
data_020ecfbc kind:bss addr:0x020ecfbc
data_020ecfc4 kind:bss addr:0x020ecfc4
data_020ecfd0 kind:bss addr:0x020ecfd0
data_020ecfdc kind:bss addr:0x020ecfdc
data_020ecfe8 kind:bss addr:0x020ecfe8
data_020ecff4 kind:bss addr:0x020ecff4
data_020ed000 kind:bss addr:0x020ed000
data_020ed00c kind:bss addr:0x020ed00c
data_020ed018 kind:bss addr:0x020ed018
data_020ed024 kind:bss addr:0x020ed024
data_020ed034 kind:bss addr:0x020ed034
data_020ed03c kind:bss addr:0x020ed03c
data_020ed04c kind:bss addr:0x020ed04c
data_020ed068 kind:bss addr:0x020ed068
data_020ed094 kind:bss addr:0x020ed094
data_020ed0e8 kind:bss addr:0x020ed0e8
data_020ed11c kind:bss addr:0x020ed11c
data_020ed168 kind:bss addr:0x020ed168
data_020ed1bc kind:bss addr:0x020ed1bc
data_020ed260 kind:bss addr:0x020ed260
data_020ed268 kind:bss addr:0x020ed268
data_020ed270 kind:bss addr:0x020ed270
data_020ed284 kind:bss addr:0x020ed284
data_020ed288 kind:bss addr:0x020ed288
data_020ed28c kind:bss addr:0x020ed28c
data_020ed294 kind:bss addr:0x020ed294
data_020eda14 kind:bss addr:0x020eda14
data_020edb40 kind:bss addr:0x020edb40
data_020edb4c kind:bss addr:0x020edb4c
data_020edb58 kind:bss addr:0x020edb58
data_020edb6c kind:bss addr:0x020edb6c
data_020edb78 kind:bss addr:0x020edb78
data_020edb84 kind:bss addr:0x020edb84
data_020edb88 kind:bss addr:0x020edb88
data_020edb94 kind:bss addr:0x020edb94
data_020edba0 kind:bss addr:0x020edba0
data_020edbb0 kind:bss addr:0x020edbb0
data_020edbb4 kind:bss addr:0x020edbb4
data_020edbb8 kind:bss addr:0x020edbb8
data_020edbbc kind:bss addr:0x020edbbc
data_020edbc0 kind:bss addr:0x020edbc0
data_020edbc8 kind:bss addr:0x020edbc8
data_020edbd0 kind:bss addr:0x020edbd0
data_020edbdc kind:bss addr:0x020edbdc
data_020edc40 kind:bss addr:0x020edc40
data_020edc48 kind:bss addr:0x020edc48
data_020edc54 kind:bss addr:0x020edc54
data_020edc64 kind:bss addr:0x020edc64
data_020edc84 kind:bss addr:0x020edc84
data_020eddec kind:bss addr:0x020eddec
data_020eddf0 kind:bss addr:0x020eddf0
data_020eddf2 kind:bss addr:0x020eddf2
data_020eddf4 kind:bss addr:0x020eddf4
data_020eddf6 kind:bss addr:0x020eddf6
data_020eddf8 kind:bss addr:0x020eddf8
data_020eddfa kind:bss addr:0x020eddfa
data_020eddfc kind:bss addr:0x020eddfc
data_020eddfe kind:bss addr:0x020eddfe
data_020ede00 kind:bss addr:0x020ede00
data_020ede02 kind:bss addr:0x020ede02
data_020ede04 kind:bss addr:0x020ede04
data_020ede06 kind:bss addr:0x020ede06
data_020ede08 kind:bss addr:0x020ede08
data_020ede0c kind:bss addr:0x020ede0c
data_020ede10 kind:bss addr:0x020ede10
data_020ede14 kind:bss addr:0x020ede14
data_020ede18 kind:bss addr:0x020ede18
data_020ede1c kind:bss addr:0x020ede1c
data_020ede20 kind:bss addr:0x020ede20
data_020ede24 kind:bss addr:0x020ede24
data_020ede28 kind:bss addr:0x020ede28
data_020ede2a kind:bss addr:0x020ede2a
data_020ede2c kind:bss addr:0x020ede2c
data_020ede2e kind:bss addr:0x020ede2e
data_020ede30 kind:bss addr:0x020ede30
data_020ede32 kind:bss addr:0x020ede32
data_020ede34 kind:bss addr:0x020ede34
data_020ede36 kind:bss addr:0x020ede36
data_020ede38 kind:bss addr:0x020ede38
data_020ede3a kind:bss addr:0x020ede3a
data_020ede3c kind:bss addr:0x020ede3c
data_020ede3e kind:bss addr:0x020ede3e
data_020ede40 kind:bss addr:0x020ede40
data_020ede44 kind:bss addr:0x020ede44
data_020ede48 kind:bss addr:0x020ede48
data_020ede4c kind:bss addr:0x020ede4c
data_020ede50 kind:bss addr:0x020ede50
data_020ede54 kind:bss addr:0x020ede54
data_020ede58 kind:bss addr:0x020ede58
data_020ede5c kind:bss addr:0x020ede5c
data_020ede60 kind:bss addr:0x020ede60
data_020ede74 kind:bss addr:0x020ede74
data_020eded0 kind:bss addr:0x020eded0
data_020edf2c kind:bss addr:0x020edf2c
data_020edf88 kind:bss addr:0x020edf88
data_020ee188 kind:bss addr:0x020ee188
data_020ee190 kind:bss addr:0x020ee190
data_020ee19c kind:bss addr:0x020ee19c
data_020ee1c0 kind:bss addr:0x020ee1c0
_ZN6status7g_StoryE kind:bss(size=0xABC) addr:0x020ee1cc
data_020eec88 kind:bss addr:0x020eec88
data_020eec94 kind:bss addr:0x020eec94
data_020eeca4 kind:bss addr:0x020eeca4
data_020eecb0 kind:bss addr:0x020eecb0
_ZN6status12messageData_E kind:bss addr:0x020eecc0
data_020eeccc kind:bss addr:0x020eeccc
data_020eecd0 kind:bss addr:0x020eecd0
data_020eecd4 kind:bss addr:0x020eecd4
data_020eecd8 kind:bss addr:0x020eecd8
data_020eecdc kind:bss addr:0x020eecdc
data_020eece0 kind:bss addr:0x020eece0
data_020eece4 kind:bss addr:0x020eece4
data_020eece8 kind:bss addr:0x020eece8
BaseActionStatus_ kind:bss addr:0x020eecec
data_020eecfc kind:bss addr:0x020eecfc
data_020eed00 kind:bss addr:0x020eed00
data_020eed04 kind:bss addr:0x020eed04
data_020eed14 kind:bss addr:0x020eed14
data_020eed18 kind:bss addr:0x020eed18
data_020eed1c kind:bss addr:0x020eed1c
data_020eed20 kind:bss addr:0x020eed20
data_020eed28 kind:bss addr:0x020eed28
data_020eed2c kind:bss addr:0x020eed2c
data_020eed30 kind:bss addr:0x020eed30
data_020eed34 kind:bss addr:0x020eed34
data_020eed38 kind:bss addr:0x020eed38
data_020eed44 kind:bss addr:0x020eed44
g_cmnPartyInfo kind:bss addr:0x020eed50
data_020ef6f4 kind:bss addr:0x020ef6f4
data_020ef6f8 kind:bss addr:0x020ef6f8
data_020ef6fc kind:bss addr:0x020ef6fc
data_020ef700 kind:bss addr:0x020ef700
data_020ef704 kind:bss addr:0x020ef704
data_020ef708 kind:bss addr:0x020ef708
data_020ef70c kind:bss addr:0x020ef70c
data_020ef710 kind:bss addr:0x020ef710
data_020ef71c kind:bss addr:0x020ef71c
data_020ef740 kind:bss addr:0x020ef740
data_020ef794 kind:bss addr:0x020ef794
data_020ef79c kind:bss addr:0x020ef79c
data_020ef7a0 kind:bss addr:0x020ef7a0
data_020ef7ac kind:bss addr:0x020ef7ac
data_020ef7b8 kind:bss addr:0x020ef7b8
data_020ef7c8 kind:bss addr:0x020ef7c8
data_020ef7cc kind:bss addr:0x020ef7cc
data_020ef7d8 kind:bss addr:0x020ef7d8
data_020ef7e4 kind:bss addr:0x020ef7e4
data_020ef858 kind:bss addr:0x020ef858
data_020ef85c kind:bss addr:0x020ef85c
data_020ef868 kind:bss addr:0x020ef868
data_020ef880 kind:bss addr:0x020ef880
data_020ef8e4 kind:bss addr:0x020ef8e4
data_020ef8f0 kind:bss addr:0x020ef8f0
data_020ef93c kind:bss addr:0x020ef93c
_ZN3cmn19g_CommonCounterInfoE kind:bss addr:0x020ef9ac
data_020ef9c8 kind:bss addr:0x020ef9c8
data_020ef9d4 kind:bss addr:0x020ef9d4
data_020efba0 kind:bss addr:0x020efba0
data_020efc54 kind:bss addr:0x020efc54
data_020efc58 kind:bss addr:0x020efc58
data_020efc60 kind:bss addr:0x020efc60
data_020efc6c kind:bss addr:0x020efc6c
data_020efc88 kind:bss addr:0x020efc88
data_020efc94 kind:bss addr:0x020efc94
data_020efca4 kind:bss addr:0x020efca4
data_020efcb0 kind:bss addr:0x020efcb0
data_020efcc0 kind:bss addr:0x020efcc0
data_020efd50 kind:bss addr:0x020efd50
data_020efd5c kind:bss addr:0x020efd5c
data_020efd6c kind:bss addr:0x020efd6c
data_020efd78 kind:bss addr:0x020efd78
data_020efd88 kind:bss addr:0x020efd88
data_020f0000 kind:bss addr:0x020f0000
data_020f0011 kind:bss addr:0x020f0011
data_020f006c kind:bss addr:0x020f006c
data_020f0078 kind:bss addr:0x020f0078
data_020f0080 kind:bss addr:0x020f0080
data_020f0242 kind:bss addr:0x020f0242
data_020f17a8 kind:bss addr:0x020f17a8
data_020f17b0 kind:bss addr:0x020f17b0
data_020f17bc kind:bss addr:0x020f17bc
data_020f17c0 kind:bss addr:0x020f17c0
data_020f17c4 kind:bss addr:0x020f17c4
data_020f1878 kind:bss addr:0x020f1878
data_020f192c kind:bss addr:0x020f192c
data_020f19e0 kind:bss addr:0x020f19e0
data_020f1ae8 kind:bss addr:0x020f1ae8
data_020f1b74 kind:bss addr:0x020f1b74
data_020f1c2c kind:bss addr:0x020f1c2c
data_020f1d78 kind:bss addr:0x020f1d78
data_020f1d7c kind:bss addr:0x020f1d7c
data_020f1d88 kind:bss addr:0x020f1d88
data_020f1db8 kind:bss addr:0x020f1db8
data_020f1e38 kind:bss addr:0x020f1e38
data_020f2008 kind:bss addr:0x020f2008
data_020f201c kind:bss addr:0x020f201c
data_020f2020 kind:bss addr:0x020f2020
data_020f2024 kind:bss addr:0x020f2024
data_020f2028 kind:bss addr:0x020f2028
data_020f202c kind:bss addr:0x020f202c
data_020f2038 kind:bss addr:0x020f2038
data_020f2088 kind:bss addr:0x020f2088
data_020f208c kind:bss addr:0x020f208c
data_020f2098 kind:bss addr:0x020f2098
data_020f20c4 kind:bss addr:0x020f20c4
data_020f20f8 kind:bss addr:0x020f20f8
data_020f20fc kind:bss addr:0x020f20fc
data_020f2100 kind:bss addr:0x020f2100
data_020f2104 kind:bss addr:0x020f2104
data_020f2108 kind:bss addr:0x020f2108
data_020f210c kind:bss addr:0x020f210c
data_020f2110 kind:bss addr:0x020f2110
data_020f2114 kind:bss addr:0x020f2114
data_020f2118 kind:bss addr:0x020f2118
data_020f2178 kind:bss addr:0x020f2178
data_020f217c kind:bss addr:0x020f217c
data_020f2180 kind:bss addr:0x020f2180
data_020f2184 kind:bss addr:0x020f2184
data_020f2188 kind:bss addr:0x020f2188
data_020f218c kind:bss addr:0x020f218c
data_020f2190 kind:bss addr:0x020f2190
data_020f2194 kind:bss addr:0x020f2194
data_020f2198 kind:bss addr:0x020f2198
data_020f21f8 kind:bss addr:0x020f21f8
data_020f220c kind:bss addr:0x020f220c
data_020f2244 kind:bss addr:0x020f2244
data_020f227c kind:bss addr:0x020f227c
data_020f2284 kind:bss addr:0x020f2284
data_020f2290 kind:bss addr:0x020f2290
data_020f229c kind:bss addr:0x020f229c
data_020f22a8 kind:bss addr:0x020f22a8
data_020f22b0 kind:bss addr:0x020f22b0
data_020f22b8 kind:bss addr:0x020f22b8
data_020f22ba kind:bss addr:0x020f22ba
data_020f22bc kind:bss addr:0x020f22bc
data_020f22c0 kind:bss addr:0x020f22c0
data_020f22c4 kind:bss addr:0x020f22c4
data_020f22c8 kind:bss addr:0x020f22c8
data_020f22ca kind:bss addr:0x020f22ca
data_020f22cc kind:bss addr:0x020f22cc
data_020f22ce kind:bss addr:0x020f22ce
data_020f22d8 kind:bss addr:0x020f22d8
data_020f22da kind:bss addr:0x020f22da
data_020f22dc kind:bss addr:0x020f22dc
data_020f22e6 kind:bss addr:0x020f22e6
data_020f22e8 kind:bss addr:0x020f22e8
data_020f22ea kind:bss addr:0x020f22ea
data_020f22ec kind:bss addr:0x020f22ec
data_020f22ee kind:bss addr:0x020f22ee
data_020f22f0 kind:bss addr:0x020f22f0
data_020f22f2 kind:bss addr:0x020f22f2
data_020f22f4 kind:bss addr:0x020f22f4
data_020f22f6 kind:bss addr:0x020f22f6
data_020f22f8 kind:bss addr:0x020f22f8
data_020f22fa kind:bss addr:0x020f22fa
data_020f22fc kind:bss addr:0x020f22fc
data_020f2300 kind:bss addr:0x020f2300
data_020f2304 kind:bss addr:0x020f2304
data_020f2308 kind:bss addr:0x020f2308
data_020f230c kind:bss addr:0x020f230c
data_020f2310 kind:bss addr:0x020f2310
data_020f2314 kind:bss addr:0x020f2314
data_020f2318 kind:bss addr:0x020f2318
data_020f231c kind:bss addr:0x020f231c
data_020f2320 kind:bss addr:0x020f2320
data_020f2324 kind:bss addr:0x020f2324
data_020f2328 kind:bss addr:0x020f2328
data_020f232c kind:bss addr:0x020f232c
data_020f2330 kind:bss addr:0x020f2330
data_020f2334 kind:bss addr:0x020f2334
data_020f2338 kind:bss addr:0x020f2338
data_020f233c kind:bss addr:0x020f233c
data_020f2340 kind:bss addr:0x020f2340
data_020f2344 kind:bss addr:0x020f2344
data_020f2348 kind:bss addr:0x020f2348
data_020f2354 kind:bss addr:0x020f2354
data_020f2360 kind:bss addr:0x020f2360
data_020f236c kind:bss addr:0x020f236c
data_020f236e kind:bss addr:0x020f236e
data_020f2370 kind:bss addr:0x020f2370
data_020f2372 kind:bss addr:0x020f2372
data_020f2374 kind:bss addr:0x020f2374
data_020f2376 kind:bss addr:0x020f2376
data_020f2378 kind:bss addr:0x020f2378
data_020f237a kind:bss addr:0x020f237a
data_020f237c kind:bss addr:0x020f237c
data_020f238c kind:bss addr:0x020f238c
data_020f238e kind:bss addr:0x020f238e
data_020f2390 kind:bss addr:0x020f2390
data_020f2392 kind:bss addr:0x020f2392
data_020f2394 kind:bss addr:0x020f2394
data_020f2396 kind:bss addr:0x020f2396
data_020f2398 kind:bss addr:0x020f2398
data_020f239a kind:bss addr:0x020f239a
data_020f239c kind:bss addr:0x020f239c
data_020f239e kind:bss addr:0x020f239e
data_020f23a0 kind:bss addr:0x020f23a0
data_020f23a2 kind:bss addr:0x020f23a2
data_020f23a4 kind:bss addr:0x020f23a4
data_020f23a6 kind:bss addr:0x020f23a6
data_020f23a8 kind:bss addr:0x020f23a8
data_020f23aa kind:bss addr:0x020f23aa
data_020f23ac kind:bss addr:0x020f23ac
data_020f23ae kind:bss addr:0x020f23ae
data_020f23b0 kind:bss addr:0x020f23b0
data_020f23b2 kind:bss addr:0x020f23b2
data_020f23b4 kind:bss addr:0x020f23b4
data_020f23b6 kind:bss addr:0x020f23b6
data_020f23b8 kind:bss addr:0x020f23b8
data_020f23ba kind:bss addr:0x020f23ba
data_020f23bc kind:bss addr:0x020f23bc
data_020f23be kind:bss addr:0x020f23be
data_020f23c0 kind:bss addr:0x020f23c0
data_020f23c2 kind:bss addr:0x020f23c2
data_020f23c4 kind:bss addr:0x020f23c4
data_020f23c6 kind:bss addr:0x020f23c6
data_020f23c8 kind:bss addr:0x020f23c8
data_020f23ca kind:bss addr:0x020f23ca
data_020f23cc kind:bss addr:0x020f23cc
data_020f23ce kind:bss addr:0x020f23ce
data_020f23d0 kind:bss addr:0x020f23d0
data_020f23d2 kind:bss addr:0x020f23d2
data_020f23d4 kind:bss addr:0x020f23d4
data_020f23d8 kind:bss addr:0x020f23d8
data_020f23dc kind:bss addr:0x020f23dc
data_020f23e0 kind:bss addr:0x020f23e0
data_020f23e4 kind:bss addr:0x020f23e4
data_020f23e8 kind:bss addr:0x020f23e8
data_020f23ec kind:bss addr:0x020f23ec
data_020f23f0 kind:bss addr:0x020f23f0
data_020f23f4 kind:bss addr:0x020f23f4
data_020f23f8 kind:bss addr:0x020f23f8
data_020f23fc kind:bss addr:0x020f23fc
data_020f2400 kind:bss addr:0x020f2400
data_020f2404 kind:bss addr:0x020f2404
data_020f2408 kind:bss addr:0x020f2408
data_020f240c kind:bss addr:0x020f240c
data_020f2410 kind:bss addr:0x020f2410
data_020f2414 kind:bss addr:0x020f2414
data_020f2420 kind:bss addr:0x020f2420
data_020f2594 kind:bss addr:0x020f2594
data_020f25a8 kind:bss addr:0x020f25a8
data_020f4e14 kind:bss addr:0x020f4e14
data_020f4e18 kind:bss addr:0x020f4e18
data_020f4e1c kind:bss addr:0x020f4e1c
data_020f4e20 kind:bss addr:0x020f4e20
data_020f4e24 kind:bss addr:0x020f4e24
data_020f4e28 kind:bss addr:0x020f4e28
data_020f4e2c kind:bss addr:0x020f4e2c
data_020f4e30 kind:bss addr:0x020f4e30
data_020f4e3c kind:bss addr:0x020f4e3c
data_020f4e48 kind:bss addr:0x020f4e48
data_020f4e54 kind:bss addr:0x020f4e54
data_020f4e60 kind:bss addr:0x020f4e60
data_020f4e6c kind:bss addr:0x020f4e6c
data_020f4e78 kind:bss addr:0x020f4e78
data_020f4e84 kind:bss addr:0x020f4e84
data_020f4e8c kind:bss addr:0x020f4e8c
data_020f4e98 kind:bss addr:0x020f4e98
data_020f4ea8 kind:bss addr:0x020f4ea8
data_020f4eb4 kind:bss addr:0x020f4eb4
data_020f4ec0 kind:bss addr:0x020f4ec0
data_020f530c kind:bss addr:0x020f530c
data_020f6340 kind:bss addr:0x020f6340
data_020f637c kind:bss addr:0x020f637c
data_020f63ec kind:bss addr:0x020f63ec
data_020f641c kind:bss addr:0x020f641c
data_020f7e10 kind:bss addr:0x020f7e10
data_020f8168 kind:bss addr:0x020f8168
data_020f8ad4 kind:bss addr:0x020f8ad4
data_020f9440 kind:bss addr:0x020f9440
data_020f9dac kind:bss addr:0x020f9dac
data_020fa718 kind:bss addr:0x020fa718
data_020fa768 kind:bss addr:0x020fa768
data_020fa7b8 kind:bss addr:0x020fa7b8
data_020fa828 kind:bss addr:0x020fa828
data_020fa968 kind:bss addr:0x020fa968
data_020facb8 kind:bss addr:0x020facb8
data_020facbc kind:bss addr:0x020facbc
data_020fb8f4 kind:bss addr:0x020fb8f4
data_02100000 kind:bss addr:0x02100000
data_02100012 kind:bss addr:0x02100012
data_02108518 kind:bss addr:0x02108518
data_021098a4 kind:bss addr:0x021098a4
data_021098a8 kind:bss addr:0x021098a8
data_021098ac kind:bss addr:0x021098ac
data_021098b0 kind:bss addr:0x021098b0
data_021098b4 kind:bss addr:0x021098b4
data_021098b8 kind:bss addr:0x021098b8
data_021098bc kind:bss addr:0x021098bc
data_021098c4 kind:bss addr:0x021098c4
data_021098c8 kind:bss addr:0x021098c8
data_021098cc kind:bss addr:0x021098cc
data_021098d8 kind:bss addr:0x021098d8
data_021098e4 kind:bss addr:0x021098e4
data_021098f0 kind:bss addr:0x021098f0
data_021098fc kind:bss addr:0x021098fc
data_02109908 kind:bss addr:0x02109908
data_02109914 kind:bss addr:0x02109914
data_02109920 kind:bss addr:0x02109920
data_02109930 kind:bss addr:0x02109930
data_02109940 kind:bss addr:0x02109940
data_02109950 kind:bss addr:0x02109950
data_02109960 kind:bss addr:0x02109960
data_02109970 kind:bss addr:0x02109970
data_02109980 kind:bss addr:0x02109980
data_02109990 kind:bss addr:0x02109990
data_021099c0 kind:bss addr:0x021099c0
data_02109a04 kind:bss addr:0x02109a04
data_02109a48 kind:bss addr:0x02109a48
data_02109c48 kind:bss addr:0x02109c48
data_02109e48 kind:bss addr:0x02109e48
data_02109e4c kind:bss addr:0x02109e4c
data_02109e50 kind:bss addr:0x02109e50
data_02109e54 kind:bss addr:0x02109e54
data_02109ed4 kind:bss addr:0x02109ed4
data_0210a0d4 kind:bss addr:0x0210a0d4
data_0210a0e0 kind:bss addr:0x0210a0e0
data_0210a0f0 kind:bss addr:0x0210a0f0
data_0210a10c kind:bss addr:0x0210a10c
data_0210a128 kind:bss addr:0x0210a128
data_0210a144 kind:bss addr:0x0210a144
data_0210a160 kind:bss addr:0x0210a160
data_0210a17c kind:bss addr:0x0210a17c
data_0210a198 kind:bss addr:0x0210a198
data_0210a1b4 kind:bss addr:0x0210a1b4
data_0210a1d0 kind:bss addr:0x0210a1d0
data_0210a1ec kind:bss addr:0x0210a1ec
data_0210a208 kind:bss addr:0x0210a208
data_0210a224 kind:bss addr:0x0210a224
data_0210a240 kind:bss addr:0x0210a240
data_0210a440 kind:bss addr:0x0210a440
data_0210a464 kind:bss addr:0x0210a464
data_0210ab6c kind:bss addr:0x0210ab6c
data_0210b37c kind:bss addr:0x0210b37c
data_0210b380 kind:bss addr:0x0210b380
data_0210b384 kind:bss addr:0x0210b384
data_0210b394 kind:bss addr:0x0210b394
data_0210b3d4 kind:bss addr:0x0210b3d4
data_0210b3f4 kind:bss addr:0x0210b3f4
data_0210b3f8 kind:bss addr:0x0210b3f8
data_0210b6f8 kind:bss addr:0x0210b6f8
data_0210baf8 kind:bss addr:0x0210baf8
data_0210bafa kind:bss addr:0x0210bafa
data_0210bb04 kind:bss addr:0x0210bb04
data_0210bb10 kind:bss addr:0x0210bb10
data_0210bb14 kind:bss addr:0x0210bb14
data_0210bb78 kind:bss addr:0x0210bb78
data_0210bb7c kind:bss addr:0x0210bb7c
data_0210bb88 kind:bss addr:0x0210bb88
data_0210bb94 kind:bss addr:0x0210bb94
data_0210bc0c kind:bss addr:0x0210bc0c
data_0210bc18 kind:bss addr:0x0210bc18
data_0210bc38 kind:bss addr:0x0210bc38
data_0210bc40 kind:bss addr:0x0210bc40
data_0210bcbc kind:bss addr:0x0210bcbc
data_0210bcc0 kind:bss addr:0x0210bcc0
data_0210bcc4 kind:bss addr:0x0210bcc4
data_0210bcc8 kind:bss addr:0x0210bcc8
data_0210bccc kind:bss addr:0x0210bccc
data_0210bcf0 kind:bss addr:0x0210bcf0
data_0210bcf4 kind:bss addr:0x0210bcf4
data_0210bcf8 kind:bss addr:0x0210bcf8
data_0210bcfc kind:bss addr:0x0210bcfc
data_0210bd00 kind:bss addr:0x0210bd00
data_0210bd04 kind:bss addr:0x0210bd04
data_0210bd08 kind:bss addr:0x0210bd08
data_0210bd0c kind:bss addr:0x0210bd0c
data_0210bd24 kind:bss addr:0x0210bd24
data_0210bd28 kind:bss addr:0x0210bd28
data_0210bd34 kind:bss addr:0x0210bd34
data_0210bd3c kind:bss addr:0x0210bd3c
data_0210bd40 kind:bss addr:0x0210bd40
data_0210bd4c kind:bss addr:0x0210bd4c
data_0210beac kind:bss addr:0x0210beac
data_0210beb0 kind:bss addr:0x0210beb0
data_0210beb4 kind:bss addr:0x0210beb4
data_0210beb8 kind:bss addr:0x0210beb8
data_0210bec8 kind:bss addr:0x0210bec8
data_0210bee0 kind:bss addr:0x0210bee0
data_0210bf00 kind:bss addr:0x0210bf00
data_0210bf60 kind:bss addr:0x0210bf60
data_0210c580 kind:bss addr:0x0210c580
data_0210c5a0 kind:bss addr:0x0210c5a0
data_0210c7c0 kind:bss addr:0x0210c7c0
data_0210c7c8 kind:bss addr:0x0210c7c8
data_0210c7cc kind:bss addr:0x0210c7cc
data_0210c7e0 kind:bss addr:0x0210c7e0
data_0210c800 kind:bss addr:0x0210c800
data_0210c804 kind:bss addr:0x0210c804
data_0210c8c0 kind:bss addr:0x0210c8c0
data_0210c9a8 kind:bss addr:0x0210c9a8
data_0210c9ac kind:bss addr:0x0210c9ac
data_0210cdd0 kind:bss addr:0x0210cdd0
data_0210cdd4 kind:bss addr:0x0210cdd4
data_0210cde0 kind:bss addr:0x0210cde0
data_0210cde4 kind:bss addr:0x0210cde4
data_0210cdec kind:bss addr:0x0210cdec
data_0210cdf4 kind:bss addr:0x0210cdf4
data_0210cdfc kind:bss addr:0x0210cdfc
data_0210ce58 kind:bss addr:0x0210ce58
data_0210ce5a kind:bss addr:0x0210ce5a
data_0210ce5c kind:bss addr:0x0210ce5c
data_0210ce5e kind:bss addr:0x0210ce5e
data_0210ce60 kind:bss addr:0x0210ce60
data_0210ce64 kind:bss addr:0x0210ce64
data_0210ce66 kind:bss addr:0x0210ce66
data_0210ce68 kind:bss addr:0x0210ce68
data_0210ce6a kind:bss addr:0x0210ce6a
data_0210ce6c kind:bss addr:0x0210ce6c
data_0210ce6e kind:bss addr:0x0210ce6e
data_0210ce70 kind:bss addr:0x0210ce70
data_0210ce72 kind:bss addr:0x0210ce72
data_0210ce74 kind:bss addr:0x0210ce74
data_0210ce78 kind:bss addr:0x0210ce78
data_0210ce94 kind:bss addr:0x0210ce94
data_0210ceb4 kind:bss addr:0x0210ceb4
data_0210ced4 kind:bss addr:0x0210ced4
data_0210ced8 kind:bss addr:0x0210ced8
data_0210cee4 kind:bss addr:0x0210cee4
data_0210cf28 kind:bss addr:0x0210cf28
data_0210cf30 kind:bss addr:0x0210cf30
data_0210cf74 kind:bss addr:0x0210cf74
data_0210cfa8 kind:bss addr:0x0210cfa8
data_0210cfd0 kind:bss addr:0x0210cfd0
data_0210cfe4 kind:bss addr:0x0210cfe4
data_0210d008 kind:bss addr:0x0210d008
data_0210d014 kind:bss addr:0x0210d014
data_0210d028 kind:bss addr:0x0210d028
data_0210d058 kind:bss addr:0x0210d058
data_0210d088 kind:bss addr:0x0210d088
data_0210d0e8 kind:bss addr:0x0210d0e8
data_0210d128 kind:bss addr:0x0210d128
data_0210d168 kind:bss addr:0x0210d168
data_0210d180 kind:bss addr:0x0210d180
data_0210d18c kind:bss addr:0x0210d18c
data_0210d190 kind:bss addr:0x0210d190
data_0210df90 kind:bss addr:0x0210df90
data_0210df94 kind:bss addr:0x0210df94
data_0210df98 kind:bss addr:0x0210df98
data_0210df9c kind:bss addr:0x0210df9c
data_0210dfa0 kind:bss addr:0x0210dfa0
data_0210dfa4 kind:bss addr:0x0210dfa4
data_0210e590 kind:bss addr:0x0210e590
data_0210e5d0 kind:bss addr:0x0210e5d0
data_0210fe90 kind:bss addr:0x0210fe90
data_0210fe94 kind:bss addr:0x0210fe94
data_0210fe9c kind:bss addr:0x0210fe9c
data_0210feb0 kind:bss addr:0x0210feb0
data_0210feb4 kind:bss addr:0x0210feb4
data_0210feb8 kind:bss addr:0x0210feb8
data_0210fecc kind:bss addr:0x0210fecc
data_0210fed0 kind:bss addr:0x0210fed0
data_0210fee0 kind:bss addr:0x0210fee0
data_0210fef0 kind:bss addr:0x0210fef0
data_0210fefc kind:bss addr:0x0210fefc
data_02110013 kind:bss addr:0x02110013
data_02110028 kind:bss addr:0x02110028
data_02110143 kind:bss addr:0x02110143
data_021122e0 kind:bss addr:0x021122e0
data_021122ec kind:bss addr:0x021122ec
data_021122f8 kind:bss addr:0x021122f8
data_02112304 kind:bss addr:0x02112304
data_02112744 kind:bss addr:0x02112744
data_0211275c kind:bss addr:0x0211275c
data_02112760 kind:bss addr:0x02112760
data_02112bc4 kind:bss addr:0x02112bc4
data_02112bc8 kind:bss addr:0x02112bc8
data_02112bd4 kind:bss addr:0x02112bd4
data_02112c14 kind:bss addr:0x02112c14
data_02112c94 kind:bss addr:0x02112c94
data_02112c9c kind:bss addr:0x02112c9c
data_02112cbc kind:bss addr:0x02112cbc
data_02112cdc kind:bss addr:0x02112cdc
data_02112dd0 kind:bss addr:0x02112dd0
data_02113290 kind:bss addr:0x02113290
data_02113294 kind:bss addr:0x02113294
data_021132d0 kind:bss addr:0x021132d0
data_021132dc kind:bss addr:0x021132dc
data_021132e8 kind:bss addr:0x021132e8
data_02113300 kind:bss addr:0x02113300
data_02113480 kind:bss addr:0x02113480
data_02113948 kind:bss addr:0x02113948
data_02113960 kind:bss addr:0x02113960
data_0211396c kind:bss addr:0x0211396c
data_02113f40 kind:bss addr:0x02113f40
data_02114140 kind:bss addr:0x02114140
data_02114144 kind:bss addr:0x02114144
data_02114148 kind:bss addr:0x02114148
data_02114170 kind:bss addr:0x02114170
data_02114174 kind:bss addr:0x02114174
data_02114178 kind:bss addr:0x02114178
data_021141a0 kind:bss addr:0x021141a0
data_021141a4 kind:bss addr:0x021141a4
data_021141c8 kind:bss addr:0x021141c8
data_021141cc kind:bss addr:0x021141cc
data_021141d8 kind:bss addr:0x021141d8
data_02114298 kind:bss addr:0x02114298
data_02114420 kind:bss addr:0x02114420
data_02114428 kind:bss addr:0x02114428
data_0211444c kind:bss addr:0x0211444c
data_02114454 kind:bss addr:0x02114454
data_02114458 kind:bss addr:0x02114458
data_021144d8 kind:bss addr:0x021144d8
data_021144dc kind:bss addr:0x021144dc
data_021144e4 kind:bss addr:0x021144e4
data_021144ec kind:bss addr:0x021144ec
data_02114500 kind:bss addr:0x02114500
data_02114504 kind:bss addr:0x02114504
data_02114508 kind:bss addr:0x02114508
data_0211451c kind:bss addr:0x0211451c
data_02114520 kind:bss addr:0x02114520
data_021145a0 kind:bss addr:0x021145a0
data_021145a4 kind:bss addr:0x021145a4
data_021145c0 kind:bss addr:0x021145c0
data_021145e4 kind:bss addr:0x021145e4
data_02114620 kind:bss addr:0x02114620
data_021148a0 kind:bss addr:0x021148a0
data_021155c0 kind:bss addr:0x021155c0
data_02116088 kind:bss addr:0x02116088
data_021160a0 kind:bss addr:0x021160a0
data_02116100 kind:bss addr:0x02116100
data_02116104 kind:bss addr:0x02116104
data_02116140 kind:bss addr:0x02116140
data_0211614c kind:bss addr:0x0211614c
data_02116154 kind:bss addr:0x02116154
data_02116158 kind:bss addr:0x02116158
data_02116168 kind:bss addr:0x02116168
data_02116180 kind:bss addr:0x02116180
data_02116184 kind:bss addr:0x02116184
data_021161c0 kind:bss addr:0x021161c0
data_021161c8 kind:bss addr:0x021161c8
data_021161e8 kind:bss addr:0x021161e8
data_02116210 kind:bss addr:0x02116210
data_02116224 kind:bss addr:0x02116224
data_02116234 kind:bss addr:0x02116234
data_02116260 kind:bss addr:0x02116260
data_02116c60 kind:bss addr:0x02116c60
data_02116ce0 kind:bss addr:0x02116ce0
data_02116ce4 kind:bss addr:0x02116ce4
data_02116ce8 kind:bss addr:0x02116ce8
data_02116d40 kind:bss addr:0x02116d40
data_02116d94 kind:bss addr:0x02116d94
data_0211a5d4 kind:bss addr:0x0211a5d4
data_0211a604 kind:bss addr:0x0211a604
data_0211a60c kind:bss addr:0x0211a60c
data_0211a664 kind:bss addr:0x0211a664
data_0211a668 kind:bss addr:0x0211a668
data_0211a678 kind:bss addr:0x0211a678
data_0211a688 kind:bss addr:0x0211a688
data_0211a698 kind:bss addr:0x0211a698
data_0211a6a8 kind:bss addr:0x0211a6a8
_ZN7dssrand7dssrandE kind:bss addr:0x0211a7c4
data_0211a7d0 kind:bss addr:0x0211a7d0
data_0211afe4 kind:bss addr:0x0211afe4
data_0211b3f0 kind:bss addr:0x0211b3f0
data_0211b7d0 kind:bss addr:0x0211b7d0
data_0211b814 kind:bss addr:0x0211b814
data_0211b828 kind:bss addr:0x0211b828
data_0211c4c0 kind:bss addr:0x0211c4c0
data_0211c4cc kind:bss addr:0x0211c4cc
data_0211c4d8 kind:bss addr:0x0211c4d8
data_0211c4f0 kind:bss addr:0x0211c4f0
data_0211c508 kind:bss addr:0x0211c508
data_0211d310 kind:bss addr:0x0211d310
data_0211d314 kind:bss addr:0x0211d314
data_0211d31c kind:bss addr:0x0211d31c
data_0211d324 kind:bss addr:0x0211d324
data_0211d344 kind:bss addr:0x0211d344
data_0211d364 kind:bss addr:0x0211d364
data_0211d368 kind:bss addr:0x0211d368
data_0211d3e0 kind:bss addr:0x0211d3e0
data_0211d430 kind:bss addr:0x0211d430
data_0211d434 kind:bss addr:0x0211d434
data_0211d438 kind:bss addr:0x0211d438
data_0211d444 kind:bss addr:0x0211d444
data_0211e444 kind:bss addr:0x0211e444
data_0211e450 kind:bss addr:0x0211e450
data_0211ec50 kind:bss addr:0x0211ec50
data_0211ec68 kind:bss addr:0x0211ec68
data_0211f468 kind:bss addr:0x0211f468
data_0211fc70 kind:bss addr:0x0211fc70
data_0211fc7c kind:bss addr:0x0211fc7c
data_0211fd20 kind:bss addr:0x0211fd20
data_0211fd34 kind:bss addr:0x0211fd34
data_0211fd44 kind:bss addr:0x0211fd44
data_02120000 kind:bss addr:0x02120000
data_02120015 kind:bss addr:0x02120015
data_021201fb kind:bss addr:0x021201fb
data_02120544 kind:bss addr:0x02120544
data_02120548 kind:bss addr:0x02120548
data_02120948 kind:bss addr:0x02120948
data_02120f90 kind:bss addr:0x02120f90
data_02120f94 kind:bss addr:0x02120f94
data_02120f9c kind:bss addr:0x02120f9c
data_02120fa8 kind:bss addr:0x02120fa8
data_02120fb4 kind:bss addr:0x02120fb4
data_02120fb8 kind:bss addr:0x02120fb8
data_02120fbc kind:bss addr:0x02120fbc
data_02120fc0 kind:bss addr:0x02120fc0
data_02121078 kind:bss addr:0x02121078
data_02121094 kind:bss addr:0x02121094
